	.file	"<artificial>"
	.text
/APP
	.section .rodata
.global gEmbeddedNNUEBigData
.balign 32
gEmbeddedNNUEBigData:
.incbin "nn-c288c895ea92.nnue"
.global gEmbeddedNNUEBigEnd
.balign 1
gEmbeddedNNUEBigEnd:
.byte 1
.global gEmbeddedNNUEBigSize
.balign 32
gEmbeddedNNUEBigSize:
.int gEmbeddedNNUEBigEnd - gEmbeddedNNUEBigData
.balign 32
.text

	.section .rodata
.global gEmbeddedNNUESmallData
.balign 32
gEmbeddedNNUESmallData:
.incbin "nn-37f18f62d772.nnue"
.global gEmbeddedNNUESmallEnd
.balign 1
gEmbeddedNNUESmallEnd:
.byte 1
.global gEmbeddedNNUESmallSize
.balign 32
gEmbeddedNNUESmallSize:
.int gEmbeddedNNUESmallEnd - gEmbeddedNNUESmallData
.balign 32
.text

/NO_APP
	.p2align 4
	.def	_ZNSt6thread24_M_thread_deps_never_runEv;	.scl	3;	.type	32;	.endef
	.seh_proc	_ZNSt6thread24_M_thread_deps_never_runEv
_ZNSt6thread24_M_thread_deps_never_runEv:
	.seh_endprologue
	ret
	.seh_endproc
	.p2align 4
	.def	_ZNSt17_Function_handlerIFvSt8optionalINSt7__cxx1112basic_stringIcSt11char_traitsIcESaIcEEEEEZN9Stockfish9UCIEngineC4EiPPcEUlRKS7_E_E10_M_managerERSt9_Any_dataRKSH_St18_Manager_operation;	.scl	3;	.type	32;	.endef
	.seh_proc	_ZNSt17_Function_handlerIFvSt8optionalINSt7__cxx1112basic_stringIcSt11char_traitsIcESaIcEEEEEZN9Stockfish9UCIEngineC4EiPPcEUlRKS7_E_E10_M_managerERSt9_Any_dataRKSH_St18_Manager_operation
_ZNSt17_Function_handlerIFvSt8optionalINSt7__cxx1112basic_stringIcSt11char_traitsIcESaIcEEEEEZN9Stockfish9UCIEngineC4EiPPcEUlRKS7_E_E10_M_managerERSt9_Any_dataRKSH_St18_Manager_operation:
	.seh_endprologue
	testl	%r8d, %r8d
	je	.L4
	cmpl	$1, %r8d
	je	.L5
	xorl	%eax, %eax
	ret
	.p2align 4,,10
	.p2align 3
.L5:
	xorl	%eax, %eax
	movq	%rdx, (%rcx)
	ret
	.p2align 4,,10
	.p2align 3
.L4:
	leaq	_ZTIZN9Stockfish9UCIEngineC4EiPPcEUlRKSt8optionalINSt7__cxx1112basic_stringIcSt11char_traitsIcESaIcEEEEE_(%rip), %rax
	movq	%rax, (%rcx)
	xorl	%eax, %eax
	ret
	.seh_endproc
	.align 2
	.p2align 4
	.def	_ZN9Stockfish12_GLOBAL__N_13Tie4syncEv;	.scl	3;	.type	32;	.endef
	.seh_proc	_ZN9Stockfish12_GLOBAL__N_13Tie4syncEv
_ZN9Stockfish12_GLOBAL__N_13Tie4syncEv:
	pushq	%rbx
	.seh_pushreg	%rbx
	subq	$32, %rsp
	.seh_stackalloc	32
	.seh_endprologue
	movq	%rcx, %rbx
	movq	72(%rcx), %rcx
	movq	(%rcx), %rax
	call	*48(%rax)
	movq	64(%rbx), %rcx
	movq	(%rcx), %rdx
	movq	48(%rdx), %rax
	addq	$32, %rsp
	popq	%rbx
	rex.W jmp	*%rax
	.seh_endproc
	.p2align 4
	.def	_ZN9Stockfish12_GLOBAL__N_1L22partial_insertion_sortEPNS_7ExtMoveES2_i;	.scl	3;	.type	32;	.endef
	.seh_proc	_ZN9Stockfish12_GLOBAL__N_1L22partial_insertion_sortEPNS_7ExtMoveES2_i
_ZN9Stockfish12_GLOBAL__N_1L22partial_insertion_sortEPNS_7ExtMoveES2_i:
	pushq	%rdi
	.seh_pushreg	%rdi
	pushq	%rsi
	.seh_pushreg	%rsi
	pushq	%rbx
	.seh_pushreg	%rbx
	.seh_endprologue
	movq	%rdx, %r10
	leaq	8(%rcx), %rdx
	movq	%rcx, %r11
	movl	%r8d, %ebx
	cmpq	%r10, %rdx
	jnb	.L53
	movq	%rcx, %rsi
	jmp	.L13
	.p2align 4
	.p2align 4,,10
	.p2align 3
.L10:
	addq	$8, %rdx
	cmpq	%r10, %rdx
	jnb	.L53
.L13:
	movl	4(%rdx), %ecx
	cmpl	%ebx, %ecx
	jl	.L10
	movq	8(%rsi), %rax
	leaq	8(%rsi), %r8
	movzwl	(%rdx), %edi
	movq	%rax, (%rdx)
	cmpq	%r8, %r11
	je	.L14
	movq	%r8, %r9
	movq	%r8, %rax
	subq	%r11, %r9
	subq	$8, %r9
	shrq	$3, %r9
	addq	$1, %r9
	andl	$7, %r9d
	je	.L12
	cmpq	$1, %r9
	je	.L38
	cmpq	$2, %r9
	je	.L39
	cmpq	$3, %r9
	je	.L40
	cmpq	$4, %r9
	je	.L41
	cmpq	$5, %r9
	je	.L42
	cmpq	$6, %r9
	je	.L43
	cmpl	-4(%r8), %ecx
	jle	.L11
	movq	-8(%r8), %rax
	movq	%rax, 8(%rsi)
	leaq	-8(%r8), %rax
.L43:
	cmpl	-4(%rax), %ecx
	jle	.L11
	movq	-8(%rax), %rsi
	subq	$8, %rax
	movq	%rsi, 8(%rax)
.L42:
	cmpl	-4(%rax), %ecx
	jle	.L11
	movq	-8(%rax), %r9
	subq	$8, %rax
	movq	%r9, 8(%rax)
.L41:
	cmpl	-4(%rax), %ecx
	jle	.L11
	movq	-8(%rax), %rsi
	subq	$8, %rax
	movq	%rsi, 8(%rax)
.L40:
	cmpl	-4(%rax), %ecx
	jle	.L11
	movq	-8(%rax), %r9
	subq	$8, %rax
	movq	%r9, 8(%rax)
.L39:
	cmpl	-4(%rax), %ecx
	jle	.L11
	movq	-8(%rax), %rsi
	subq	$8, %rax
	movq	%rsi, 8(%rax)
.L38:
	cmpl	-4(%rax), %ecx
	jle	.L11
	movq	-8(%rax), %r9
	subq	$8, %rax
	movq	%r9, 8(%rax)
	cmpq	%rax, %r11
	je	.L11
.L12:
	cmpl	-4(%rax), %ecx
	jle	.L11
	movq	-8(%rax), %rsi
	leaq	-8(%rax), %r9
	movq	%rsi, (%rax)
	movq	%r9, %rax
	cmpl	-4(%r9), %ecx
	jle	.L11
	movq	-8(%r9), %rsi
	subq	$8, %rax
	movq	%rsi, (%r9)
	cmpl	-4(%rax), %ecx
	jle	.L11
	movq	-8(%rax), %rsi
	movq	%rsi, (%rax)
	leaq	-16(%r9), %rax
	cmpl	-20(%r9), %ecx
	jle	.L11
	movq	-8(%rax), %rax
	movq	%rax, -16(%r9)
	leaq	-24(%r9), %rax
	cmpl	-28(%r9), %ecx
	jle	.L11
	movq	-8(%rax), %rsi
	leaq	-32(%r9), %rax
	movq	%rsi, -24(%r9)
	cmpl	-36(%r9), %ecx
	jle	.L11
	movq	-8(%rax), %rax
	movq	%rax, -32(%r9)
	leaq	-40(%r9), %rax
	cmpl	-44(%r9), %ecx
	jle	.L11
	movq	-8(%rax), %rsi
	leaq	-48(%r9), %rax
	movq	%rsi, -40(%r9)
	cmpl	-52(%r9), %ecx
	jle	.L11
	movq	-8(%rax), %rax
	movq	%rax, -48(%r9)
	leaq	-56(%r9), %rax
	cmpq	%rax, %r11
	jne	.L12
	.p2align 4
	.p2align 3
.L11:
	movw	%di, (%rax)
	movq	%r8, %rsi
	movl	%ecx, 4(%rax)
.L54:
	addq	$8, %rdx
	cmpq	%r10, %rdx
	jb	.L13
.L53:
	popq	%rbx
	popq	%rsi
	popq	%rdi
	ret
.L14:
	movq	%r11, %rax
	movq	%r8, %rsi
	movw	%di, (%rax)
	movl	%ecx, 4(%rax)
	jmp	.L54
	.seh_endproc
	.align 2
	.p2align 4
	.def	_ZNK9Stockfish8Position19upcoming_repetitionEi;	.scl	3;	.type	32;	.endef
	.seh_proc	_ZNK9Stockfish8Position19upcoming_repetitionEi
_ZNK9Stockfish8Position19upcoming_repetitionEi:
	pushq	%r15
	.seh_pushreg	%r15
	pushq	%r14
	.seh_pushreg	%r14
	pushq	%r13
	.seh_pushreg	%r13
	pushq	%r12
	.seh_pushreg	%r12
	pushq	%rbp
	.seh_pushreg	%rbp
	pushq	%rdi
	.seh_pushreg	%rdi
	pushq	%rsi
	.seh_pushreg	%rsi
	pushq	%rbx
	.seh_pushreg	%rbx
	.seh_endprologue
	movq	608(%rcx), %rax
	movl	52(%rax), %r10d
	movl	%edx, 80(%rsp)
	movl	56(%rax), %edx
	movq	%rcx, %rsi
	cmpl	%edx, %r10d
	cmovg	%edx, %r10d
	xorl	%ebx, %ebx
	cmpl	$2, %r10d
	jle	.L55
	movq	80(%rax), %rcx
	movq	_ZN9Stockfish7Zobrist4sideE(%rip), %r9
	leal	-3(%r10), %r13d
	leaq	_ZN9Stockfish6cuckooE(%rip), %r11
	movq	64(%rax), %rbx
	leaq	_ZN9Stockfish10cuckooMoveE(%rip), %rdi
	leaq	_ZN9Stockfish9BetweenBBE(%rip), %rbp
	shrl	%r13d
	movq	80(%rcx), %r14
	movq	%r9, %rax
	movl	$1, %r12d
	xorq	%rbx, %rax
	xorq	64(%rcx), %rax
	movq	80(%r14), %r8
	movq	64(%r14), %rdx
	movq	64(%r8), %rcx
	xorq	%r9, %rdx
	xorq	%rcx, %rdx
	cmpq	%rax, %rdx
	jne	.L64
	xorq	%rbx, %rcx
	movq	%rcx, %r15
	andl	$8191, %r15d
	cmpq	%rcx, (%r11,%r15,8)
	je	.L65
	movq	%rcx, %r15
	shrq	$16, %r15
	andl	$8191, %r15d
	cmpq	%rcx, (%r11,%r15,8)
	je	.L65
.L64:
	xorq	%rdx, %rax
	movl	$5, %ecx
	cmpl	$5, %r10d
	jl	.L79
	andl	$1, %r13d
	jne	.L85
.L83:
	movq	%rax, %r13
	jmp	.L59
	.p2align 4,,10
	.p2align 3
.L86:
	movq	%r8, %r14
	shrq	$16, %r14
	andl	$8191, %r14d
	cmpq	%r8, (%r11,%r14,8)
	je	.L58
.L57:
	xorq	%r13, %rdx
	movq	80(%rax), %r13
	addl	$2, %ecx
	movq	80(%r13), %r8
	movq	64(%r13), %r13
	movq	64(%r8), %rax
	xorq	%r9, %r13
	xorq	%rax, %r13
	cmpq	%rdx, %r13
	jne	.L71
	xorq	%rbx, %rax
	movq	%rax, %r14
	andl	$8191, %r14d
	cmpq	%rax, (%r11,%r14,8)
	je	.L72
	movq	%rax, %r14
	shrq	$16, %r14
	andl	$8191, %r14d
	cmpq	%rax, (%r11,%r14,8)
	je	.L72
.L71:
	addl	$2, %ecx
	xorq	%rdx, %r13
	cmpl	%ecx, %r10d
	jl	.L79
.L59:
	movq	80(%r8), %rdx
	movq	80(%rdx), %rax
	movq	64(%rdx), %rdx
	movq	64(%rax), %r8
	xorq	%r9, %rdx
	xorq	%r8, %rdx
	cmpq	%r13, %rdx
	jne	.L57
	xorq	%rbx, %r8
	movq	%r8, %r14
	andl	$8191, %r14d
	cmpq	%r8, (%r11,%r14,8)
	jne	.L86
.L58:
	movzwl	(%rdi,%r14,2), %r8d
	movl	%r8d, %r14d
	movq	%r8, %r15
	shlx	%r8, %r12, %r8
	shrw	$6, %r14w
	andl	$63, %r15d
	andl	$63, %r14d
	salq	$6, %r14
	addq	%r15, %r14
	xorq	0(%rbp,%r14,8), %r8
	andq	64(%rsi), %r8
	jne	.L57
	cmpl	%ecx, 80(%rsp)
	jg	.L62
	movl	188(%rax), %r15d
	testl	%r15d, %r15d
	je	.L57
.L62:
	movl	$1, %ebx
.L55:
	movl	%ebx, %eax
	popq	%rbx
	popq	%rsi
	popq	%rdi
	popq	%rbp
	popq	%r12
	popq	%r13
	popq	%r14
	popq	%r15
	ret
	.p2align 4,,10
	.p2align 3
.L72:
	movzwl	(%rdi,%r14,2), %eax
	movl	%eax, %r14d
	movq	%rax, %r15
	shlx	%rax, %r12, %rax
	shrw	$6, %r14w
	andl	$63, %r15d
	andl	$63, %r14d
	salq	$6, %r14
	addq	%r15, %r14
	xorq	0(%rbp,%r14,8), %rax
	andq	64(%rsi), %rax
	jne	.L71
	cmpl	%ecx, 80(%rsp)
	jg	.L62
	movl	188(%r8), %r15d
	testl	%r15d, %r15d
	jne	.L62
	addl	$2, %ecx
	xorq	%rdx, %r13
	cmpl	%ecx, %r10d
	jge	.L59
	.p2align 4
	.p2align 3
.L79:
	xorl	%ebx, %ebx
.L87:
	movl	%ebx, %eax
	popq	%rbx
	popq	%rsi
	popq	%rdi
	popq	%rbp
	popq	%r12
	popq	%r13
	popq	%r14
	popq	%r15
	ret
	.p2align 4,,10
	.p2align 3
.L85:
	movq	80(%r8), %rdx
	movq	80(%rdx), %r8
	movq	64(%rdx), %rdx
	movq	64(%r8), %r13
	xorq	%r9, %rdx
	xorq	%r13, %rdx
	cmpq	%rax, %rdx
	jne	.L67
	xorq	%rbx, %r13
	movq	%r13, %r14
	andl	$8191, %r14d
	cmpq	%r13, (%r11,%r14,8)
	je	.L68
	movq	%r13, %r14
	shrq	$16, %r14
	andl	$8191, %r14d
	cmpq	%r13, (%r11,%r14,8)
	je	.L68
.L67:
	addl	$2, %ecx
	xorq	%rdx, %rax
	cmpl	%ecx, %r10d
	jge	.L83
	xorl	%ebx, %ebx
	jmp	.L87
	.p2align 4,,10
	.p2align 3
.L65:
	movzwl	(%rdi,%r15,2), %ecx
	movl	%ecx, %r14d
	movq	%rcx, %r15
	shlx	%rcx, %r12, %rcx
	shrw	$6, %r14w
	andl	$63, %r15d
	andl	$63, %r14d
	salq	$6, %r14
	addq	%r15, %r14
	xorq	0(%rbp,%r14,8), %rcx
	andq	64(%rsi), %rcx
	jne	.L64
	cmpl	$3, 80(%rsp)
	jg	.L62
	movl	188(%r8), %r15d
	testl	%r15d, %r15d
	je	.L64
	jmp	.L62
	.p2align 4,,10
	.p2align 3
.L68:
	movzwl	(%rdi,%r14,2), %r13d
	movl	%r13d, %r14d
	movq	%r13, %r15
	shlx	%r13, %r12, %r13
	shrw	$6, %r14w
	andl	$63, %r15d
	andl	$63, %r14d
	salq	$6, %r14
	addq	%r15, %r14
	xorq	0(%rbp,%r14,8), %r13
	andq	64(%rsi), %r13
	jne	.L67
	cmpl	%ecx, 80(%rsp)
	jg	.L62
	movl	188(%r8), %r15d
	testl	%r15d, %r15d
	je	.L67
	jmp	.L62
	.seh_endproc
	.p2align 4
	.def	_ZN9Stockfish12_GLOBAL__N_1L12is_shufflingENS_4MoveEPNS_6Search5StackERKNS_8PositionE;	.scl	3;	.type	32;	.endef
	.seh_proc	_ZN9Stockfish12_GLOBAL__N_1L12is_shufflingENS_4MoveEPNS_6Search5StackERKNS_8PositionE
_ZN9Stockfish12_GLOBAL__N_1L12is_shufflingENS_4MoveEPNS_6Search5StackERKNS_8PositionE:
	.seh_endprologue
	movq	%rcx, %rax
	movl	%ecx, %r9d
	andl	$63, %eax
	andw	$-16384, %r9w
	cmpb	$0, (%r8,%rax)
	movl	$0, %eax
	je	.L89
	cmpw	$-16384, %r9w
	je	.L91
.L88:
	ret
	.p2align 4,,10
	.p2align 3
.L89:
	cmpw	$-32768, %r9w
	je	.L88
.L91:
	movl	%ecx, %r10d
	xorl	%eax, %eax
	shrw	$12, %r10w
	notl	%r10d
	andl	$3, %r10d
	je	.L88
	movq	608(%r8), %r8
	cmpl	$9, 52(%r8)
	jle	.L88
	cmpl	$6, 56(%r8)
	jle	.L88
	cmpl	$19, 24(%rdx)
	jle	.L88
	movzwl	-84(%rdx), %r11d
	shrw	$6, %cx
	xorl	%r11d, %ecx
	andl	$63, %ecx
	jne	.L88
	shrw	$6, %r11w
	xorb	-196(%rdx), %r11b
	andl	$63, %r11d
	sete	%al
	ret
	.seh_endproc
	.p2align 4
	.def	_ZN9Stockfish12_GLOBAL__N_1L13value_from_ttEiii;	.scl	3;	.type	32;	.endef
	.seh_proc	_ZN9Stockfish12_GLOBAL__N_1L13value_from_ttEiii
_ZN9Stockfish12_GLOBAL__N_1L13value_from_ttEiii:
	.seh_endprologue
	cmpl	$32002, %ecx
	je	.L106
	cmpl	$31506, %ecx
	jle	.L103
	movl	$100, %r10d
	subl	%r8d, %r10d
	cmpl	$31753, %ecx
	jle	.L104
	movl	$32000, %r8d
	movl	$31506, %eax
	subl	%ecx, %r8d
	cmpl	%r10d, %r8d
	jg	.L101
.L104:
	movl	$31753, %r11d
	movl	%ecx, %eax
	subl	%ecx, %r11d
	subl	%edx, %eax
	movl	$31506, %edx
	cmpl	%r10d, %r11d
	cmovg	%edx, %eax
.L101:
	ret
	.p2align 4,,10
	.p2align 3
.L103:
	movl	%ecx, %eax
	cmpl	$-31506, %ecx
	jge	.L101
	movl	$100, %r9d
	subl	%r8d, %r9d
	cmpl	$-31753, %ecx
	jl	.L112
.L105:
	leal	31752(%rcx), %eax
	cmpl	%r9d, %eax
	jge	.L111
	leal	(%rcx,%rdx), %eax
	ret
	.p2align 4,,10
	.p2align 3
.L112:
	addl	$31999, %eax
	cmpl	%r9d, %eax
	jl	.L105
.L111:
	movl	$-31506, %eax
	ret
	.p2align 4,,10
	.p2align 3
.L106:
	movl	$32002, %eax
	ret
	.seh_endproc
	.p2align 4
	.def	_ZN9Stockfish12_GLOBAL__N_1L29update_continuation_historiesEPNS_6Search5StackENS_5PieceENS_6SquareEi;	.scl	3;	.type	32;	.endef
	.seh_proc	_ZN9Stockfish12_GLOBAL__N_1L29update_continuation_historiesEPNS_6Search5StackENS_5PieceENS_6SquareEi
_ZN9Stockfish12_GLOBAL__N_1L29update_continuation_historiesEPNS_6Search5StackENS_5PieceENS_6SquareEi:
	pushq	%rdi
	.seh_pushreg	%rdi
	pushq	%rsi
	.seh_pushreg	%rsi
	pushq	%rbx
	.seh_pushreg	%rbx
	.seh_endprologue
	movl	_ZZN9Stockfish12_GLOBAL__N_1L29update_continuation_historiesEPNS_6Search5StackENS_5PieceENS_6SquareEiE16conthist_bonuses(%rip), %r11d
	movzbl	44(%rcx), %r10d
	movq	%rcx, %rax
	cmpl	$2, %r11d
	jle	.L139
	testb	%r10b, %r10b
	jne	.L201
.L139:
	movslq	%r11d, %rcx
	movq	%rax, %rbx
	movsbq	%dl, %rdx
	imulq	$56, %rcx, %rsi
	salq	$7, %rdx
	subq	%rsi, %rbx
	movzwl	28(%rbx), %edi
	testw	%di, %di
	je	.L116
	cmpw	$65, %di
	jne	.L202
.L116:
	movl	8+_ZZN9Stockfish12_GLOBAL__N_1L29update_continuation_historiesEPNS_6Search5StackENS_5PieceENS_6SquareEiE16conthist_bonuses(%rip), %r11d
	cmpl	$2, %r11d
	jle	.L140
.L208:
	testb	%r10b, %r10b
	jne	.L201
.L140:
	movslq	%r11d, %rbx
	movq	%rax, %rdi
	imulq	$56, %rbx, %rsi
	subq	%rsi, %rdi
	movzwl	28(%rdi), %ecx
	cmpw	$65, %cx
	je	.L120
	testw	%cx, %cx
	jne	.L203
.L120:
	movl	16+_ZZN9Stockfish12_GLOBAL__N_1L29update_continuation_historiesEPNS_6Search5StackENS_5PieceENS_6SquareEiE16conthist_bonuses(%rip), %r11d
	cmpl	$2, %r11d
	jle	.L141
.L209:
	testb	%r10b, %r10b
	jne	.L201
.L141:
	movslq	%r11d, %rbx
	movq	%rax, %rdi
	imulq	$56, %rbx, %rsi
	subq	%rsi, %rdi
	movzwl	28(%rdi), %ecx
	cmpw	$65, %cx
	je	.L124
	testw	%cx, %cx
	jne	.L204
.L124:
	movl	24+_ZZN9Stockfish12_GLOBAL__N_1L29update_continuation_historiesEPNS_6Search5StackENS_5PieceENS_6SquareEiE16conthist_bonuses(%rip), %r11d
	cmpl	$2, %r11d
	jle	.L142
.L210:
	testb	%r10b, %r10b
	jne	.L201
.L142:
	movslq	%r11d, %rbx
	movq	%rax, %rdi
	imulq	$56, %rbx, %rsi
	subq	%rsi, %rdi
	movzwl	28(%rdi), %ecx
	cmpw	$65, %cx
	je	.L128
	testw	%cx, %cx
	jne	.L205
.L128:
	movl	32+_ZZN9Stockfish12_GLOBAL__N_1L29update_continuation_historiesEPNS_6Search5StackENS_5PieceENS_6SquareEiE16conthist_bonuses(%rip), %r11d
	cmpl	$2, %r11d
	jle	.L143
.L211:
	testb	%r10b, %r10b
	jne	.L201
.L143:
	movslq	%r11d, %rbx
	movq	%rax, %rdi
	imulq	$56, %rbx, %rsi
	subq	%rsi, %rdi
	movzwl	28(%rdi), %ecx
	cmpw	$65, %cx
	je	.L132
	testw	%cx, %cx
	jne	.L206
.L132:
	movl	40+_ZZN9Stockfish12_GLOBAL__N_1L29update_continuation_historiesEPNS_6Search5StackENS_5PieceENS_6SquareEiE16conthist_bonuses(%rip), %ebx
	cmpl	$2, %ebx
	jle	.L135
.L212:
	testb	%r10b, %r10b
	jne	.L201
.L135:
	movslq	%ebx, %r10
	imulq	$56, %r10, %rsi
	subq	%rsi, %rax
	movzwl	28(%rax), %ecx
	cmpw	$65, %cx
	je	.L201
	testw	%cx, %cx
	jne	.L207
.L201:
	popq	%rbx
	popq	%rsi
	popq	%rdi
	ret
	.p2align 4,,10
	.p2align 3
.L202:
	movl	4+_ZZN9Stockfish12_GLOBAL__N_1L29update_continuation_historiesEPNS_6Search5StackENS_5PieceENS_6SquareEiE16conthist_bonuses(%rip), %edi
	movq	8(%rbx), %rbx
	movsbq	%r8b, %rsi
	imull	%r9d, %edi
	addq	%rdx, %rbx
	leal	1023(%rdi), %ecx
	testl	%edi, %edi
	cmovs	%ecx, %edi
	sarl	$10, %edi
	cmpl	$2, %r11d
	movl	$-30000, %r11d
	leal	88(%rdi), %ecx
	cmovge	%edi, %ecx
	movl	$30000, %edi
	cmpl	%r11d, %ecx
	cmovl	%r11d, %ecx
	cmpl	%edi, %ecx
	cmovg	%edi, %ecx
	movswl	(%rbx,%rsi,2), %edi
	movl	%ecx, %r11d
	negl	%r11d
	cmovs	%ecx, %r11d
	addw	(%rbx,%rsi,2), %cx
	imull	%edi, %r11d
	movslq	%r11d, %rdi
	sarl	$31, %r11d
	imulq	$1172812403, %rdi, %rdi
	sarq	$45, %rdi
	subl	%edi, %r11d
	addl	%r11d, %ecx
	movl	8+_ZZN9Stockfish12_GLOBAL__N_1L29update_continuation_historiesEPNS_6Search5StackENS_5PieceENS_6SquareEiE16conthist_bonuses(%rip), %r11d
	movw	%cx, (%rbx,%rsi,2)
	cmpl	$2, %r11d
	jg	.L208
	jmp	.L140
	.p2align 4,,10
	.p2align 3
.L203:
	movq	8(%rdi), %rbx
	movl	12+_ZZN9Stockfish12_GLOBAL__N_1L29update_continuation_historiesEPNS_6Search5StackENS_5PieceENS_6SquareEiE16conthist_bonuses(%rip), %edi
	movsbq	%r8b, %rsi
	imull	%r9d, %edi
	addq	%rdx, %rbx
	leal	1023(%rdi), %ecx
	testl	%edi, %edi
	cmovs	%ecx, %edi
	sarl	$10, %edi
	cmpl	$2, %r11d
	movl	$-30000, %r11d
	leal	88(%rdi), %ecx
	cmovge	%edi, %ecx
	movl	$30000, %edi
	cmpl	%r11d, %ecx
	cmovl	%r11d, %ecx
	cmpl	%edi, %ecx
	cmovg	%edi, %ecx
	movswl	(%rbx,%rsi,2), %edi
	movl	%ecx, %r11d
	negl	%r11d
	cmovs	%ecx, %r11d
	addw	(%rbx,%rsi,2), %cx
	imull	%edi, %r11d
	movslq	%r11d, %rdi
	sarl	$31, %r11d
	imulq	$1172812403, %rdi, %rdi
	sarq	$45, %rdi
	subl	%edi, %r11d
	addl	%r11d, %ecx
	movl	16+_ZZN9Stockfish12_GLOBAL__N_1L29update_continuation_historiesEPNS_6Search5StackENS_5PieceENS_6SquareEiE16conthist_bonuses(%rip), %r11d
	movw	%cx, (%rbx,%rsi,2)
	cmpl	$2, %r11d
	jg	.L209
	jmp	.L141
	.p2align 4,,10
	.p2align 3
.L204:
	movq	8(%rdi), %rbx
	movl	20+_ZZN9Stockfish12_GLOBAL__N_1L29update_continuation_historiesEPNS_6Search5StackENS_5PieceENS_6SquareEiE16conthist_bonuses(%rip), %edi
	movsbq	%r8b, %rsi
	imull	%r9d, %edi
	addq	%rdx, %rbx
	leal	1023(%rdi), %ecx
	testl	%edi, %edi
	cmovs	%ecx, %edi
	sarl	$10, %edi
	cmpl	$2, %r11d
	movl	$-30000, %r11d
	leal	88(%rdi), %ecx
	cmovge	%edi, %ecx
	movl	$30000, %edi
	cmpl	%r11d, %ecx
	cmovl	%r11d, %ecx
	cmpl	%edi, %ecx
	cmovg	%edi, %ecx
	movswl	(%rbx,%rsi,2), %edi
	movl	%ecx, %r11d
	negl	%r11d
	cmovs	%ecx, %r11d
	addw	(%rbx,%rsi,2), %cx
	imull	%edi, %r11d
	movslq	%r11d, %rdi
	sarl	$31, %r11d
	imulq	$1172812403, %rdi, %rdi
	sarq	$45, %rdi
	subl	%edi, %r11d
	addl	%r11d, %ecx
	movl	24+_ZZN9Stockfish12_GLOBAL__N_1L29update_continuation_historiesEPNS_6Search5StackENS_5PieceENS_6SquareEiE16conthist_bonuses(%rip), %r11d
	movw	%cx, (%rbx,%rsi,2)
	cmpl	$2, %r11d
	jg	.L210
	jmp	.L142
	.p2align 4,,10
	.p2align 3
.L205:
	movq	8(%rdi), %rbx
	movl	28+_ZZN9Stockfish12_GLOBAL__N_1L29update_continuation_historiesEPNS_6Search5StackENS_5PieceENS_6SquareEiE16conthist_bonuses(%rip), %edi
	movsbq	%r8b, %rsi
	imull	%r9d, %edi
	addq	%rdx, %rbx
	leal	1023(%rdi), %ecx
	testl	%edi, %edi
	cmovs	%ecx, %edi
	sarl	$10, %edi
	cmpl	$2, %r11d
	movl	$-30000, %r11d
	leal	88(%rdi), %ecx
	cmovge	%edi, %ecx
	movl	$30000, %edi
	cmpl	%r11d, %ecx
	cmovl	%r11d, %ecx
	cmpl	%edi, %ecx
	cmovg	%edi, %ecx
	movswl	(%rbx,%rsi,2), %edi
	movl	%ecx, %r11d
	negl	%r11d
	cmovs	%ecx, %r11d
	addw	(%rbx,%rsi,2), %cx
	imull	%edi, %r11d
	movslq	%r11d, %rdi
	sarl	$31, %r11d
	imulq	$1172812403, %rdi, %rdi
	sarq	$45, %rdi
	subl	%edi, %r11d
	addl	%r11d, %ecx
	movl	32+_ZZN9Stockfish12_GLOBAL__N_1L29update_continuation_historiesEPNS_6Search5StackENS_5PieceENS_6SquareEiE16conthist_bonuses(%rip), %r11d
	movw	%cx, (%rbx,%rsi,2)
	cmpl	$2, %r11d
	jg	.L211
	jmp	.L143
	.p2align 4,,10
	.p2align 3
.L206:
	movq	8(%rdi), %rbx
	movl	36+_ZZN9Stockfish12_GLOBAL__N_1L29update_continuation_historiesEPNS_6Search5StackENS_5PieceENS_6SquareEiE16conthist_bonuses(%rip), %edi
	movsbq	%r8b, %rsi
	imull	%r9d, %edi
	addq	%rdx, %rbx
	leal	1023(%rdi), %ecx
	testl	%edi, %edi
	cmovs	%ecx, %edi
	sarl	$10, %edi
	cmpl	$2, %r11d
	movl	$-30000, %r11d
	leal	88(%rdi), %ecx
	cmovge	%edi, %ecx
	movl	$30000, %edi
	cmpl	%r11d, %ecx
	cmovl	%r11d, %ecx
	cmpl	%edi, %ecx
	cmovg	%edi, %ecx
	movswl	(%rbx,%rsi,2), %edi
	movl	%ecx, %r11d
	negl	%r11d
	cmovs	%ecx, %r11d
	addw	(%rbx,%rsi,2), %cx
	imull	%edi, %r11d
	movslq	%r11d, %rdi
	sarl	$31, %r11d
	imulq	$1172812403, %rdi, %rdi
	sarq	$45, %rdi
	subl	%edi, %r11d
	addl	%r11d, %ecx
	movw	%cx, (%rbx,%rsi,2)
	movl	40+_ZZN9Stockfish12_GLOBAL__N_1L29update_continuation_historiesEPNS_6Search5StackENS_5PieceENS_6SquareEiE16conthist_bonuses(%rip), %ebx
	cmpl	$2, %ebx
	jg	.L212
	jmp	.L135
	.p2align 4,,10
	.p2align 3
.L207:
	imull	44+_ZZN9Stockfish12_GLOBAL__N_1L29update_continuation_historiesEPNS_6Search5StackENS_5PieceENS_6SquareEiE16conthist_bonuses(%rip), %r9d
	addq	8(%rax), %rdx
	movl	$30000, %edi
	movsbq	%r8b, %r8
	testl	%r9d, %r9d
	leal	1023(%r9), %r11d
	cmovns	%r9d, %r11d
	movl	$-30000, %r9d
	sarl	$10, %r11d
	cmpl	$2, %ebx
	movswl	(%rdx,%r8,2), %ebx
	leal	88(%r11), %eax
	cmovge	%r11d, %eax
	movl	%ebx, %esi
	cmpl	%r9d, %eax
	cmovl	%r9d, %eax
	cmpl	%edi, %eax
	cmovg	%edi, %eax
	movl	%eax, %ecx
	negl	%ecx
	cmovs	%eax, %ecx
	addl	%eax, %esi
	imull	%ebx, %ecx
	movslq	%ecx, %r10
	sarl	$31, %ecx
	imulq	$1172812403, %r10, %r11
	sarq	$45, %r11
	subl	%r11d, %ecx
	addl	%ecx, %esi
	movw	%si, (%rdx,%r8,2)
	popq	%rbx
	popq	%rsi
	popq	%rdi
	ret
	.seh_endproc
	.align 2
	.p2align 4
	.def	_ZN9Stockfish6Search13SearchManagerD1Ev;	.scl	3;	.type	32;	.endef
	.seh_proc	_ZN9Stockfish6Search13SearchManagerD1Ev
_ZN9Stockfish6Search13SearchManagerD1Ev:
	.seh_endprologue
	ret
	.seh_endproc
	.align 2
	.p2align 4
	.def	_ZN9Stockfish6Search17NullSearchManager10check_timeERNS0_6WorkerE;	.scl	3;	.type	32;	.endef
	.seh_proc	_ZN9Stockfish6Search17NullSearchManager10check_timeERNS0_6WorkerE
_ZN9Stockfish6Search17NullSearchManager10check_timeERNS0_6WorkerE:
	.seh_endprologue
	ret
	.seh_endproc
	.p2align 4
	.def	_ZNSt17_Function_handlerIFvvESt5_BindIFMN9Stockfish6ThreadEFvvEPS3_EEE9_M_invokeERKSt9_Any_data;	.scl	3;	.type	32;	.endef
	.seh_proc	_ZNSt17_Function_handlerIFvvESt5_BindIFMN9Stockfish6ThreadEFvvEPS3_EEE9_M_invokeERKSt9_Any_data
_ZNSt17_Function_handlerIFvvESt5_BindIFMN9Stockfish6ThreadEFvvEPS3_EEE9_M_invokeERKSt9_Any_data:
	.seh_endprologue
	movq	(%rcx), %rdx
	movq	(%rdx), %rax
	movq	8(%rdx), %rcx
	addq	16(%rdx), %rcx
	testb	$1, %al
	je	.L216
	movq	(%rcx), %r8
	movq	-1(%r8,%rax), %rax
.L216:
	rex.W jmp	*%rax
	.seh_endproc
	.p2align 4
	.def	_ZNSt17_Function_handlerIFvvEZN9Stockfish6Thread15start_searchingEvEUlvE_E10_M_managerERSt9_Any_dataRKS5_St18_Manager_operation;	.scl	3;	.type	32;	.endef
	.seh_proc	_ZNSt17_Function_handlerIFvvEZN9Stockfish6Thread15start_searchingEvEUlvE_E10_M_managerERSt9_Any_dataRKS5_St18_Manager_operation
_ZNSt17_Function_handlerIFvvEZN9Stockfish6Thread15start_searchingEvEUlvE_E10_M_managerERSt9_Any_dataRKS5_St18_Manager_operation:
	.seh_endprologue
	testl	%r8d, %r8d
	je	.L221
	cmpl	$1, %r8d
	jne	.L226
	movq	%rdx, (%rcx)
.L224:
	xorl	%eax, %eax
	ret
	.p2align 4,,10
	.p2align 3
.L226:
	cmpl	$2, %r8d
	jne	.L224
	movq	(%rdx), %rdx
	movq	%rdx, (%rcx)
	jmp	.L224
	.p2align 4,,10
	.p2align 3
.L221:
	leaq	_ZTIZN9Stockfish6Thread15start_searchingEvEUlvE_(%rip), %rax
	movq	%rax, (%rcx)
	xorl	%eax, %eax
	ret
	.seh_endproc
	.p2align 4
	.def	_ZNSt17_Function_handlerIFvvEZN9Stockfish6Thread12clear_workerEvEUlvE_E10_M_managerERSt9_Any_dataRKS5_St18_Manager_operation;	.scl	3;	.type	32;	.endef
	.seh_proc	_ZNSt17_Function_handlerIFvvEZN9Stockfish6Thread12clear_workerEvEUlvE_E10_M_managerERSt9_Any_dataRKS5_St18_Manager_operation
_ZNSt17_Function_handlerIFvvEZN9Stockfish6Thread12clear_workerEvEUlvE_E10_M_managerERSt9_Any_dataRKS5_St18_Manager_operation:
	.seh_endprologue
	testl	%r8d, %r8d
	je	.L228
	cmpl	$1, %r8d
	jne	.L233
	movq	%rdx, (%rcx)
.L231:
	xorl	%eax, %eax
	ret
	.p2align 4,,10
	.p2align 3
.L233:
	cmpl	$2, %r8d
	jne	.L231
	movq	(%rdx), %rdx
	movq	%rdx, (%rcx)
	jmp	.L231
	.p2align 4,,10
	.p2align 3
.L228:
	leaq	_ZTIZN9Stockfish6Thread12clear_workerEvEUlvE_(%rip), %rax
	movq	%rax, (%rcx)
	xorl	%eax, %eax
	ret
	.seh_endproc
	.align 2
	.p2align 4
	.def	_ZN9Stockfish6Search17NullSearchManagerD1Ev;	.scl	3;	.type	32;	.endef
	.seh_proc	_ZN9Stockfish6Search17NullSearchManagerD1Ev
_ZN9Stockfish6Search17NullSearchManagerD1Ev:
	.seh_endprologue
	ret
	.seh_endproc
	.p2align 4
	.def	_ZNSt17_Function_handlerIFbvEN9Stockfish10TablebasesUlvE_EE9_M_invokeERKSt9_Any_data;	.scl	3;	.type	32;	.endef
	.seh_proc	_ZNSt17_Function_handlerIFbvEN9Stockfish10TablebasesUlvE_EE9_M_invokeERKSt9_Any_data
_ZNSt17_Function_handlerIFbvEN9Stockfish10TablebasesUlvE_EE9_M_invokeERKSt9_Any_data:
	.seh_endprologue
	xorl	%eax, %eax
	ret
	.seh_endproc
	.p2align 4
	.def	_ZNSt17_Function_handlerIFbvEN9Stockfish10TablebasesUlvE_EE10_M_managerERSt9_Any_dataRKS5_St18_Manager_operation;	.scl	3;	.type	32;	.endef
	.seh_proc	_ZNSt17_Function_handlerIFbvEN9Stockfish10TablebasesUlvE_EE10_M_managerERSt9_Any_dataRKS5_St18_Manager_operation
_ZNSt17_Function_handlerIFbvEN9Stockfish10TablebasesUlvE_EE10_M_managerERSt9_Any_dataRKS5_St18_Manager_operation:
	.seh_endprologue
	testl	%r8d, %r8d
	je	.L237
	cmpl	$1, %r8d
	je	.L238
	xorl	%eax, %eax
	ret
	.p2align 4,,10
	.p2align 3
.L238:
	xorl	%eax, %eax
	movq	%rdx, (%rcx)
	ret
	.p2align 4,,10
	.p2align 3
.L237:
	leaq	_ZTIN9Stockfish10TablebasesUlvE_E(%rip), %rax
	movq	%rax, (%rcx)
	xorl	%eax, %eax
	ret
	.seh_endproc
	.align 2
	.p2align 4
	.def	_ZNK9Stockfish18TranspositionTable5probeEy;	.scl	3;	.type	32;	.endef
	.seh_proc	_ZNK9Stockfish18TranspositionTable5probeEy
_ZNK9Stockfish18TranspositionTable5probeEy:
	pushq	%rbp
	.seh_pushreg	%rbp
	pushq	%rdi
	.seh_pushreg	%rdi
	pushq	%rsi
	.seh_pushreg	%rsi
	pushq	%rbx
	.seh_pushreg	%rbx
	.seh_endprologue
	movq	%rcx, %r9
	movq	%r8, %rax
	movq	%rdx, %rcx
	mulq	(%rdx)
	salq	$5, %rdx
	addq	8(%rcx), %rdx
	movq	%rdx, %r10
	cmpw	(%rdx), %r8w
	je	.L241
	cmpw	10(%rdx), %r8w
	je	.L247
	cmpw	20(%rdx), %r8w
	je	.L248
	movzbl	16(%rcx), %eax
	movzbl	3(%rdx), %ebx
	movzbl	2(%rdx), %ecx
	movzbl	13(%rdx), %esi
	addl	$7, %eax
	movzbl	12(%rdx), %r11d
	movl	%eax, %r8d
	movl	%ecx, %ebp
	subl	%ebx, %r8d
	movl	%r11d, %edi
	andl	$248, %r8d
	subl	%r8d, %ebp
	movl	%eax, %r8d
	subl	%esi, %r8d
	andl	$248, %r8d
	subl	%r8d, %edi
	cmpl	%edi, %ebp
	jg	.L249
.L245:
	movzbl	22(%rdx), %esi
	movl	%eax, %ebp
	subl	%ebx, %eax
	subb	23(%rdx), %bpl
	andl	$248, %ebp
	andl	$248, %eax
	addq	$20, %rdx
	movl	$-3, 20(%r9)
	subl	%eax, %ecx
	subl	%ebp, %esi
	movq	.LC0(%rip), %rax
	movb	$0, 28(%r9)
	cmpl	%ecx, %esi
	cmovge	%r10, %rdx
	movq	%rax, 12(%r9)
	xorl	%r11d, %r11d
	movq	%r9, %rax
	movw	%r11w, 24(%r9)
	movq	%rdx, (%r9)
	xorl	%edx, %edx
	movw	%dx, 8(%r9)
	popq	%rbx
	popq	%rsi
	popq	%rdi
	popq	%rbp
	ret
	.p2align 4,,10
	.p2align 3
.L249:
	leaq	10(%rdx), %r10
	movl	%esi, %ebx
	movl	%r11d, %ecx
	jmp	.L245
	.p2align 4,,10
	.p2align 3
.L247:
	addq	$10, %r10
.L241:
	movzbl	3(%r10), %ebx
	movzbl	2(%r10), %r8d
	movq	%r9, %rax
	vmovd	6(%r10), %xmm0
	movzwl	4(%r10), %edi
	movq	%r10, (%r9)
	movl	%ebx, %ecx
	movzbl	%r8b, %r10d
	shrb	$2, %bl
	subl	$3, %r10d
	andl	$3, %ecx
	andl	$1, %ebx
	testb	%r8b, %r8b
	vpmovsxwd	%xmm0, %xmm1
	movw	%di, 8(%r9)
	movl	%r10d, 20(%r9)
	movb	%cl, 24(%r9)
	movb	%bl, 25(%r9)
	vmovq	%xmm1, 12(%r9)
	setne	28(%r9)
	popq	%rbx
	popq	%rsi
	popq	%rdi
	popq	%rbp
	ret
	.p2align 4,,10
	.p2align 3
.L248:
	addq	$20, %r10
	jmp	.L241
	.seh_endproc
	.p2align 4
	.def	_ZNSt17_Function_handlerIFvRKN9Stockfish6Search13InfoIterationEEZNS0_9UCIEngine28init_search_update_listenersEvEUlRKT_E_E10_M_managerERSt9_Any_dataRKSC_St18_Manager_operation;	.scl	3;	.type	32;	.endef
	.seh_proc	_ZNSt17_Function_handlerIFvRKN9Stockfish6Search13InfoIterationEEZNS0_9UCIEngine28init_search_update_listenersEvEUlRKT_E_E10_M_managerERSt9_Any_dataRKSC_St18_Manager_operation
_ZNSt17_Function_handlerIFvRKN9Stockfish6Search13InfoIterationEEZNS0_9UCIEngine28init_search_update_listenersEvEUlRKT_E_E10_M_managerERSt9_Any_dataRKSC_St18_Manager_operation:
	.seh_endprologue
	testl	%r8d, %r8d
	je	.L251
	cmpl	$1, %r8d
	je	.L252
	xorl	%eax, %eax
	ret
	.p2align 4,,10
	.p2align 3
.L252:
	xorl	%eax, %eax
	movq	%rdx, (%rcx)
	ret
	.p2align 4,,10
	.p2align 3
.L251:
	leaq	_ZTIZN9Stockfish9UCIEngine28init_search_update_listenersEvEUlRKT_E_(%rip), %rax
	movq	%rax, (%rcx)
	xorl	%eax, %eax
	ret
	.seh_endproc
	.p2align 4
	.def	_ZNSt17_Function_handlerIFvRKN9Stockfish6Search9InfoShortEEZNS0_9UCIEngine28init_search_update_listenersEvEUlRKT_E0_E10_M_managerERSt9_Any_dataRKSC_St18_Manager_operation;	.scl	3;	.type	32;	.endef
	.seh_proc	_ZNSt17_Function_handlerIFvRKN9Stockfish6Search9InfoShortEEZNS0_9UCIEngine28init_search_update_listenersEvEUlRKT_E0_E10_M_managerERSt9_Any_dataRKSC_St18_Manager_operation
_ZNSt17_Function_handlerIFvRKN9Stockfish6Search9InfoShortEEZNS0_9UCIEngine28init_search_update_listenersEvEUlRKT_E0_E10_M_managerERSt9_Any_dataRKSC_St18_Manager_operation:
	.seh_endprologue
	testl	%r8d, %r8d
	je	.L255
	cmpl	$1, %r8d
	je	.L256
	xorl	%eax, %eax
	ret
	.p2align 4,,10
	.p2align 3
.L256:
	xorl	%eax, %eax
	movq	%rdx, (%rcx)
	ret
	.p2align 4,,10
	.p2align 3
.L255:
	leaq	_ZTIZN9Stockfish9UCIEngine28init_search_update_listenersEvEUlRKT_E0_(%rip), %rax
	movq	%rax, (%rcx)
	xorl	%eax, %eax
	ret
	.seh_endproc
	.p2align 4
	.def	_ZNSt17_Function_handlerIFvSt17basic_string_viewIcSt11char_traitsIcEES3_EZN9Stockfish9UCIEngine28init_search_update_listenersEvEUlRKT_RKT0_E_E10_M_managerERSt9_Any_dataRKSF_St18_Manager_operation;	.scl	3;	.type	32;	.endef
	.seh_proc	_ZNSt17_Function_handlerIFvSt17basic_string_viewIcSt11char_traitsIcEES3_EZN9Stockfish9UCIEngine28init_search_update_listenersEvEUlRKT_RKT0_E_E10_M_managerERSt9_Any_dataRKSF_St18_Manager_operation
_ZNSt17_Function_handlerIFvSt17basic_string_viewIcSt11char_traitsIcEES3_EZN9Stockfish9UCIEngine28init_search_update_listenersEvEUlRKT_RKT0_E_E10_M_managerERSt9_Any_dataRKSF_St18_Manager_operation:
	.seh_endprologue
	testl	%r8d, %r8d
	je	.L259
	cmpl	$1, %r8d
	je	.L260
	xorl	%eax, %eax
	ret
	.p2align 4,,10
	.p2align 3
.L260:
	xorl	%eax, %eax
	movq	%rdx, (%rcx)
	ret
	.p2align 4,,10
	.p2align 3
.L259:
	leaq	_ZTIZN9Stockfish9UCIEngine28init_search_update_listenersEvEUlRKT_RKT0_E_(%rip), %rax
	movq	%rax, (%rcx)
	xorl	%eax, %eax
	ret
	.seh_endproc
	.p2align 4
	.def	_ZNSt17_Function_handlerIFvSt17basic_string_viewIcSt11char_traitsIcEEEZN9Stockfish9UCIEngine28init_search_update_listenersEvEUlRKT_E2_E10_M_managerERSt9_Any_dataRKSC_St18_Manager_operation;	.scl	3;	.type	32;	.endef
	.seh_proc	_ZNSt17_Function_handlerIFvSt17basic_string_viewIcSt11char_traitsIcEEEZN9Stockfish9UCIEngine28init_search_update_listenersEvEUlRKT_E2_E10_M_managerERSt9_Any_dataRKSC_St18_Manager_operation
_ZNSt17_Function_handlerIFvSt17basic_string_viewIcSt11char_traitsIcEEEZN9Stockfish9UCIEngine28init_search_update_listenersEvEUlRKT_E2_E10_M_managerERSt9_Any_dataRKSC_St18_Manager_operation:
	.seh_endprologue
	testl	%r8d, %r8d
	je	.L263
	cmpl	$1, %r8d
	je	.L264
	xorl	%eax, %eax
	ret
	.p2align 4,,10
	.p2align 3
.L264:
	xorl	%eax, %eax
	movq	%rdx, (%rcx)
	ret
	.p2align 4,,10
	.p2align 3
.L263:
	leaq	_ZTIZN9Stockfish9UCIEngine28init_search_update_listenersEvEUlRKT_E2_(%rip), %rax
	movq	%rax, (%rcx)
	xorl	%eax, %eax
	ret
	.seh_endproc
	.align 2
	.p2align 4
	.def	_ZN9Stockfish9UCIEngine28init_search_update_listenersEv;	.scl	3;	.type	32;	.endef
	.seh_proc	_ZN9Stockfish9UCIEngine28init_search_update_listenersEv
_ZN9Stockfish9UCIEngine28init_search_update_listenersEv:
	pushq	%rbx
	.seh_pushreg	%rbx
	subq	$96, %rsp
	.seh_stackalloc	96
	.seh_endprologue
	vmovq	.LC1(%rip), %xmm3
	leaq	_ZNSt17_Function_handlerIFvRKN9Stockfish6Search13InfoIterationEEZNS0_9UCIEngine28init_search_update_listenersEvEUlRKT_E_E9_M_invokeERKSt9_Any_dataS4_(%rip), %rdx
	vpxor	%xmm0, %xmm0, %xmm0
	vmovdqu	1520(%rcx), %xmm2
	vmovdqu	1504(%rcx), %xmm1
	vpinsrq	$1, %rdx, %xmm3, %xmm4
	vmovq	%xmm2, %rax
	movq	$0, 32(%rsp)
	movq	%rcx, %rbx
	movq	$0, 40(%rsp)
	movq	$0, 1504(%rcx)
	movq	$0, 1512(%rcx)
	vmovdqu	%xmm0, 48(%rsp)
	vmovdqu	%xmm1, 64(%rsp)
	vmovdqu	%xmm2, 80(%rsp)
	vmovdqu	%xmm4, 1520(%rcx)
	testq	%rax, %rax
	je	.L268
	leaq	64(%rsp), %rcx
	movl	$3, %r8d
	movq	%rcx, %rdx
	call	*%rax
	movq	48(%rsp), %rax
	testq	%rax, %rax
	je	.L268
	leaq	32(%rsp), %rcx
	movl	$3, %r8d
	movq	%rcx, %rdx
	call	*%rax
.L268:
	vmovdqu	1456(%rbx), %xmm1
	vmovq	.LC2(%rip), %xmm2
	vpxor	%xmm5, %xmm5, %xmm5
	leaq	_ZNSt17_Function_handlerIFvRKN9Stockfish6Search9InfoShortEEZNS0_9UCIEngine28init_search_update_listenersEvEUlRKT_E0_E9_M_invokeERKSt9_Any_dataS4_(%rip), %rcx
	vmovdqu	1440(%rbx), %xmm0
	vmovdqu	%xmm5, 48(%rsp)
	vpinsrq	$1, %rcx, %xmm2, %xmm3
	vmovq	%xmm1, %rax
	movq	$0, 32(%rsp)
	movq	$0, 40(%rsp)
	movq	$0, 1440(%rbx)
	movq	$0, 1448(%rbx)
	vmovdqu	%xmm0, 64(%rsp)
	vmovdqu	%xmm1, 80(%rsp)
	vmovdqu	%xmm3, 1456(%rbx)
	testq	%rax, %rax
	je	.L270
	leaq	64(%rsp), %rcx
	movl	$3, %r8d
	movq	%rcx, %rdx
	call	*%rax
	movq	48(%rsp), %rax
	testq	%rax, %rax
	je	.L270
	leaq	32(%rsp), %rcx
	movl	$3, %r8d
	movq	%rcx, %rdx
	call	*%rax
.L270:
	vmovdqu	1488(%rbx), %xmm1
	movq	%rbx, 32(%rsp)
	leaq	_ZNSt17_Function_handlerIFvRKN9Stockfish6Search8InfoFullEEZNS0_9UCIEngine28init_search_update_listenersEvEUlRKT_E1_E9_M_invokeERKSt9_Any_dataS4_(%rip), %r8
	vpxor	%xmm4, %xmm4, %xmm4
	vmovq	.LC3(%rip), %xmm2
	vmovdqu	1472(%rbx), %xmm5
	movq	$0, 40(%rsp)
	vmovdqu	32(%rsp), %xmm0
	vmovq	%xmm1, %rax
	vmovdqu	%xmm4, 48(%rsp)
	vpinsrq	$1, %r8, %xmm2, %xmm3
	vmovdqu	%xmm5, 64(%rsp)
	vmovdqu	%xmm0, 1472(%rbx)
	vmovdqu	%xmm1, 80(%rsp)
	vmovdqu	%xmm3, 1488(%rbx)
	testq	%rax, %rax
	je	.L272
	leaq	64(%rsp), %rcx
	movl	$3, %r8d
	movq	%rcx, %rdx
	call	*%rax
	movq	48(%rsp), %rax
	testq	%rax, %rax
	je	.L272
	leaq	32(%rsp), %rcx
	movl	$3, %r8d
	movq	%rcx, %rdx
	call	*%rax
.L272:
	vmovdqu	1552(%rbx), %xmm0
	vmovq	.LC4(%rip), %xmm1
	vpxor	%xmm4, %xmm4, %xmm4
	leaq	_ZNSt17_Function_handlerIFvSt17basic_string_viewIcSt11char_traitsIcEES3_EZN9Stockfish9UCIEngine28init_search_update_listenersEvEUlRKT_RKT0_E_E9_M_invokeERKSt9_Any_dataOS3_SI_(%rip), %r9
	vmovdqu	1536(%rbx), %xmm5
	vmovdqu	%xmm4, 48(%rsp)
	vpinsrq	$1, %r9, %xmm1, %xmm2
	vmovq	%xmm0, %rax
	movq	$0, 32(%rsp)
	movq	$0, 40(%rsp)
	movq	$0, 1536(%rbx)
	movq	$0, 1544(%rbx)
	vmovdqu	%xmm5, 64(%rsp)
	vmovdqu	%xmm0, 80(%rsp)
	vmovdqu	%xmm2, 1552(%rbx)
	testq	%rax, %rax
	je	.L274
	leaq	64(%rsp), %rcx
	movl	$3, %r8d
	movq	%rcx, %rdx
	call	*%rax
	movq	48(%rsp), %rax
	testq	%rax, %rax
	je	.L274
	leaq	32(%rsp), %rcx
	movl	$3, %r8d
	movq	%rcx, %rdx
	call	*%rax
.L274:
	vmovdqu	1584(%rbx), %xmm5
	vmovq	.LC5(%rip), %xmm0
	vpxor	%xmm3, %xmm3, %xmm3
	leaq	_ZNSt17_Function_handlerIFvSt17basic_string_viewIcSt11char_traitsIcEEEZN9Stockfish9UCIEngine28init_search_update_listenersEvEUlRKT_E2_E9_M_invokeERKSt9_Any_dataOS3_(%rip), %r10
	vmovdqu	1568(%rbx), %xmm4
	vmovdqu	%xmm3, 48(%rsp)
	vpinsrq	$1, %r10, %xmm0, %xmm1
	vmovq	%xmm5, %rax
	movq	$0, 32(%rsp)
	movq	$0, 40(%rsp)
	movq	$0, 1568(%rbx)
	movq	$0, 1576(%rbx)
	vmovdqu	%xmm4, 64(%rsp)
	vmovdqu	%xmm5, 80(%rsp)
	vmovdqu	%xmm1, 1584(%rbx)
	testq	%rax, %rax
	je	.L292
	leaq	64(%rsp), %rcx
	movl	$3, %r8d
	movq	%rcx, %rdx
	call	*%rax
	movq	48(%rsp), %rbx
	testq	%rbx, %rbx
	je	.L292
	leaq	32(%rsp), %rcx
	movl	$3, %r8d
	movq	%rcx, %rdx
	call	*%rbx
	nop
.L292:
	addq	$96, %rsp
	popq	%rbx
	ret
	.seh_endproc
	.p2align 4
	.def	_ZNSt17_Function_handlerIFvRKN9Stockfish6Search8InfoFullEEZNS0_9UCIEngine9benchmarkERSiEUlS4_E_E9_M_invokeERKSt9_Any_dataS4_;	.scl	3;	.type	32;	.endef
	.seh_proc	_ZNSt17_Function_handlerIFvRKN9Stockfish6Search8InfoFullEEZNS0_9UCIEngine9benchmarkERSiEUlS4_E_E9_M_invokeERKSt9_Any_dataS4_
_ZNSt17_Function_handlerIFvRKN9Stockfish6Search8InfoFullEEZNS0_9UCIEngine9benchmarkERSiEUlS4_E_E9_M_invokeERKSt9_Any_dataS4_:
	.seh_endprologue
	movq	72(%rdx), %rdx
	movq	(%rcx), %rax
	movq	%rdx, (%rax)
	ret
	.seh_endproc
	.p2align 4
	.def	_ZNSt17_Function_handlerIFvRKN9Stockfish6Search13InfoIterationEEZNS0_9UCIEngine9benchmarkERSiEUlRKT_E_E10_M_managerERSt9_Any_dataRKSD_St18_Manager_operation;	.scl	3;	.type	32;	.endef
	.seh_proc	_ZNSt17_Function_handlerIFvRKN9Stockfish6Search13InfoIterationEEZNS0_9UCIEngine9benchmarkERSiEUlRKT_E_E10_M_managerERSt9_Any_dataRKSD_St18_Manager_operation
_ZNSt17_Function_handlerIFvRKN9Stockfish6Search13InfoIterationEEZNS0_9UCIEngine9benchmarkERSiEUlRKT_E_E10_M_managerERSt9_Any_dataRKSD_St18_Manager_operation:
	.seh_endprologue
	testl	%r8d, %r8d
	je	.L295
	cmpl	$1, %r8d
	je	.L296
	xorl	%eax, %eax
	ret
	.p2align 4,,10
	.p2align 3
.L296:
	xorl	%eax, %eax
	movq	%rdx, (%rcx)
	ret
	.p2align 4,,10
	.p2align 3
.L295:
	leaq	_ZTIZN9Stockfish9UCIEngine9benchmarkERSiEUlRKT_E_(%rip), %rax
	movq	%rax, (%rcx)
	xorl	%eax, %eax
	ret
	.seh_endproc
	.p2align 4
	.def	_ZNSt17_Function_handlerIFvRKN9Stockfish6Search9InfoShortEEZNS0_9UCIEngine9benchmarkERSiEUlRKT_E0_E10_M_managerERSt9_Any_dataRKSD_St18_Manager_operation;	.scl	3;	.type	32;	.endef
	.seh_proc	_ZNSt17_Function_handlerIFvRKN9Stockfish6Search9InfoShortEEZNS0_9UCIEngine9benchmarkERSiEUlRKT_E0_E10_M_managerERSt9_Any_dataRKSD_St18_Manager_operation
_ZNSt17_Function_handlerIFvRKN9Stockfish6Search9InfoShortEEZNS0_9UCIEngine9benchmarkERSiEUlRKT_E0_E10_M_managerERSt9_Any_dataRKSD_St18_Manager_operation:
	.seh_endprologue
	testl	%r8d, %r8d
	je	.L299
	cmpl	$1, %r8d
	je	.L300
	xorl	%eax, %eax
	ret
	.p2align 4,,10
	.p2align 3
.L300:
	xorl	%eax, %eax
	movq	%rdx, (%rcx)
	ret
	.p2align 4,,10
	.p2align 3
.L299:
	leaq	_ZTIZN9Stockfish9UCIEngine9benchmarkERSiEUlRKT_E0_(%rip), %rax
	movq	%rax, (%rcx)
	xorl	%eax, %eax
	ret
	.seh_endproc
	.p2align 4
	.def	_ZNSt17_Function_handlerIFvSt17basic_string_viewIcSt11char_traitsIcEES3_EZN9Stockfish9UCIEngine9benchmarkERSiEUlRKT_RKT0_E_E9_M_invokeERKSt9_Any_dataOS3_SJ_;	.scl	3;	.type	32;	.endef
	.seh_proc	_ZNSt17_Function_handlerIFvSt17basic_string_viewIcSt11char_traitsIcEES3_EZN9Stockfish9UCIEngine9benchmarkERSiEUlRKT_RKT0_E_E9_M_invokeERKSt9_Any_dataOS3_SJ_
_ZNSt17_Function_handlerIFvSt17basic_string_viewIcSt11char_traitsIcEES3_EZN9Stockfish9UCIEngine9benchmarkERSiEUlRKT_RKT0_E_E9_M_invokeERKSt9_Any_dataOS3_SJ_:
	.seh_endprologue
	ret
	.seh_endproc
	.p2align 4
	.def	_ZNSt17_Function_handlerIFvSt17basic_string_viewIcSt11char_traitsIcEES3_EZN9Stockfish9UCIEngine9benchmarkERSiEUlRKT_RKT0_E_E10_M_managerERSt9_Any_dataRKSG_St18_Manager_operation;	.scl	3;	.type	32;	.endef
	.seh_proc	_ZNSt17_Function_handlerIFvSt17basic_string_viewIcSt11char_traitsIcEES3_EZN9Stockfish9UCIEngine9benchmarkERSiEUlRKT_RKT0_E_E10_M_managerERSt9_Any_dataRKSG_St18_Manager_operation
_ZNSt17_Function_handlerIFvSt17basic_string_viewIcSt11char_traitsIcEES3_EZN9Stockfish9UCIEngine9benchmarkERSiEUlRKT_RKT0_E_E10_M_managerERSt9_Any_dataRKSG_St18_Manager_operation:
	.seh_endprologue
	testl	%r8d, %r8d
	je	.L304
	cmpl	$1, %r8d
	je	.L305
	xorl	%eax, %eax
	ret
	.p2align 4,,10
	.p2align 3
.L305:
	xorl	%eax, %eax
	movq	%rdx, (%rcx)
	ret
	.p2align 4,,10
	.p2align 3
.L304:
	leaq	_ZTIZN9Stockfish9UCIEngine9benchmarkERSiEUlRKT_RKT0_E_(%rip), %rax
	movq	%rax, (%rcx)
	xorl	%eax, %eax
	ret
	.seh_endproc
	.p2align 4
	.def	_ZNSt17_Function_handlerIFvSt17basic_string_viewIcSt11char_traitsIcEEEZN9Stockfish9UCIEngine9benchmarkERSiEUlRKT_E1_E9_M_invokeERKSt9_Any_dataOS3_;	.scl	3;	.type	32;	.endef
	.seh_proc	_ZNSt17_Function_handlerIFvSt17basic_string_viewIcSt11char_traitsIcEEEZN9Stockfish9UCIEngine9benchmarkERSiEUlRKT_E1_E9_M_invokeERKSt9_Any_dataOS3_
_ZNSt17_Function_handlerIFvSt17basic_string_viewIcSt11char_traitsIcEEEZN9Stockfish9UCIEngine9benchmarkERSiEUlRKT_E1_E9_M_invokeERKSt9_Any_dataOS3_:
	.seh_endprologue
	ret
	.seh_endproc
	.p2align 4
	.def	_ZNSt17_Function_handlerIFvSt17basic_string_viewIcSt11char_traitsIcEEEZN9Stockfish9UCIEngine9benchmarkERSiEUlRKT_E1_E10_M_managerERSt9_Any_dataRKSD_St18_Manager_operation;	.scl	3;	.type	32;	.endef
	.seh_proc	_ZNSt17_Function_handlerIFvSt17basic_string_viewIcSt11char_traitsIcEEEZN9Stockfish9UCIEngine9benchmarkERSiEUlRKT_E1_E10_M_managerERSt9_Any_dataRKSD_St18_Manager_operation
_ZNSt17_Function_handlerIFvSt17basic_string_viewIcSt11char_traitsIcEEEZN9Stockfish9UCIEngine9benchmarkERSiEUlRKT_E1_E10_M_managerERSt9_Any_dataRKSD_St18_Manager_operation:
	.seh_endprologue
	testl	%r8d, %r8d
	je	.L309
	cmpl	$1, %r8d
	je	.L310
	xorl	%eax, %eax
	ret
	.p2align 4,,10
	.p2align 3
.L310:
	xorl	%eax, %eax
	movq	%rdx, (%rcx)
	ret
	.p2align 4,,10
	.p2align 3
.L309:
	leaq	_ZTIZN9Stockfish9UCIEngine9benchmarkERSiEUlRKT_E1_(%rip), %rax
	movq	%rax, (%rcx)
	xorl	%eax, %eax
	ret
	.seh_endproc
	.p2align 4
	.def	_ZN9Stockfish12_GLOBAL__N_1L15win_rate_paramsERKNS_8PositionE;	.scl	3;	.type	32;	.endef
	.seh_proc	_ZN9Stockfish12_GLOBAL__N_1L15win_rate_paramsERKNS_8PositionE
_ZN9Stockfish12_GLOBAL__N_1L15win_rate_paramsERKNS_8PositionE:
	.seh_endprologue
	vxorps	%xmm1, %xmm1, %xmm1
	movl	184(%rdx), %eax
	addl	152(%rdx), %eax
	movl	180(%rdx), %r8d
	movl	188(%rdx), %r10d
	leal	(%rax,%rax,2), %r9d
	addl	148(%rdx), %r8d
	addl	156(%rdx), %r10d
	movl	192(%rdx), %eax
	addl	%r8d, %r9d
	leal	(%r10,%r10,2), %r11d
	addl	160(%rdx), %eax
	movl	196(%rdx), %r10d
	addl	%r11d, %r9d
	leal	(%rax,%rax,4), %r8d
	addl	164(%rdx), %r10d
	addl	%r8d, %r9d
	leal	(%r10,%r10,8), %edx
	movl	$17, %r11d
	movl	$78, %eax
	addl	%edx, %r9d
	cmpl	%r11d, %r9d
	cmovl	%r11d, %r9d
	cmpl	%eax, %r9d
	cmovg	%eax, %r9d
	movq	%rcx, %rax
	vcvtsi2sdl	%r9d, %xmm1, %xmm0
	vdivsd	.LC6(%rip), %xmm0, %xmm2
	vmovddup	%xmm2, %xmm3
	vmovupd	.LC10(%rip), %xmm2
	vmulpd	.LC7(%rip), %xmm3, %xmm4
	vaddpd	.LC8(%rip), %xmm4, %xmm5
	vaddpd	.LC9(%rip), %xmm4, %xmm1
	vmovsd	%xmm5, %xmm1, %xmm0
	vmulpd	%xmm3, %xmm0, %xmm4
	vaddsubpd	%xmm2, %xmm4, %xmm5
	vmulpd	%xmm3, %xmm5, %xmm3
	vaddpd	.LC11(%rip), %xmm3, %xmm1
	vmovupd	%xmm1, (%rcx)
	ret
	.seh_endproc
	.p2align 4
	.def	_ZNSt17_Function_handlerIFvRKN9Stockfish6Search8InfoFullEEZNS0_9UCIEngine28init_search_update_listenersEvEUlRKT_E1_E10_M_managerERSt9_Any_dataRKSC_St18_Manager_operation;	.scl	3;	.type	32;	.endef
	.seh_proc	_ZNSt17_Function_handlerIFvRKN9Stockfish6Search8InfoFullEEZNS0_9UCIEngine28init_search_update_listenersEvEUlRKT_E1_E10_M_managerERSt9_Any_dataRKSC_St18_Manager_operation
_ZNSt17_Function_handlerIFvRKN9Stockfish6Search8InfoFullEEZNS0_9UCIEngine28init_search_update_listenersEvEUlRKT_E1_E10_M_managerERSt9_Any_dataRKSC_St18_Manager_operation:
	.seh_endprologue
	testl	%r8d, %r8d
	je	.L314
	cmpl	$1, %r8d
	jne	.L319
	movq	%rdx, (%rcx)
.L317:
	xorl	%eax, %eax
	ret
	.p2align 4,,10
	.p2align 3
.L319:
	cmpl	$2, %r8d
	jne	.L317
	movq	(%rdx), %rdx
	movq	%rdx, (%rcx)
	jmp	.L317
	.p2align 4,,10
	.p2align 3
.L314:
	leaq	_ZTIZN9Stockfish9UCIEngine28init_search_update_listenersEvEUlRKT_E1_(%rip), %rax
	movq	%rax, (%rcx)
	xorl	%eax, %eax
	ret
	.seh_endproc
	.p2align 4
	.def	_ZNSt17_Function_handlerIFvRKN9Stockfish6Search8InfoFullEEZNS0_9UCIEngine5benchERSiEUlRKT_E_E10_M_managerERSt9_Any_dataRKSD_St18_Manager_operation;	.scl	3;	.type	32;	.endef
	.seh_proc	_ZNSt17_Function_handlerIFvRKN9Stockfish6Search8InfoFullEEZNS0_9UCIEngine5benchERSiEUlRKT_E_E10_M_managerERSt9_Any_dataRKSD_St18_Manager_operation
_ZNSt17_Function_handlerIFvRKN9Stockfish6Search8InfoFullEEZNS0_9UCIEngine5benchERSiEUlRKT_E_E10_M_managerERSt9_Any_dataRKSD_St18_Manager_operation:
	.seh_endprologue
	testl	%r8d, %r8d
	je	.L321
	cmpl	$1, %r8d
	jne	.L326
	movq	%rdx, (%rcx)
.L324:
	xorl	%eax, %eax
	ret
	.p2align 4,,10
	.p2align 3
.L326:
	cmpl	$2, %r8d
	jne	.L324
	movq	(%rdx), %r8
	movq	8(%rdx), %rdx
	movq	%r8, (%rcx)
	movq	%rdx, 8(%rcx)
	jmp	.L324
	.p2align 4,,10
	.p2align 3
.L321:
	leaq	_ZTIZN9Stockfish9UCIEngine5benchERSiEUlRKT_E_(%rip), %rax
	movq	%rax, (%rcx)
	xorl	%eax, %eax
	ret
	.seh_endproc
	.p2align 4
	.def	_ZNSt17_Function_handlerIFvRKN9Stockfish6Search8InfoFullEEZNS0_9UCIEngine5benchERSiEUlRKT_E0_E10_M_managerERSt9_Any_dataRKSD_St18_Manager_operation;	.scl	3;	.type	32;	.endef
	.seh_proc	_ZNSt17_Function_handlerIFvRKN9Stockfish6Search8InfoFullEEZNS0_9UCIEngine5benchERSiEUlRKT_E0_E10_M_managerERSt9_Any_dataRKSD_St18_Manager_operation
_ZNSt17_Function_handlerIFvRKN9Stockfish6Search8InfoFullEEZNS0_9UCIEngine5benchERSiEUlRKT_E0_E10_M_managerERSt9_Any_dataRKSD_St18_Manager_operation:
	.seh_endprologue
	testl	%r8d, %r8d
	je	.L328
	cmpl	$1, %r8d
	jne	.L333
	movq	%rdx, (%rcx)
.L331:
	xorl	%eax, %eax
	ret
	.p2align 4,,10
	.p2align 3
.L333:
	cmpl	$2, %r8d
	jne	.L331
	movq	(%rdx), %rdx
	movq	%rdx, (%rcx)
	jmp	.L331
	.p2align 4,,10
	.p2align 3
.L328:
	leaq	_ZTIZN9Stockfish9UCIEngine5benchERSiEUlRKT_E0_(%rip), %rax
	movq	%rax, (%rcx)
	xorl	%eax, %eax
	ret
	.seh_endproc
	.p2align 4
	.def	_ZNSt17_Function_handlerIFvRKN9Stockfish6Search8InfoFullEEZNS0_9UCIEngine9benchmarkERSiEUlS4_E_E10_M_managerERSt9_Any_dataRKSA_St18_Manager_operation;	.scl	3;	.type	32;	.endef
	.seh_proc	_ZNSt17_Function_handlerIFvRKN9Stockfish6Search8InfoFullEEZNS0_9UCIEngine9benchmarkERSiEUlS4_E_E10_M_managerERSt9_Any_dataRKSA_St18_Manager_operation
_ZNSt17_Function_handlerIFvRKN9Stockfish6Search8InfoFullEEZNS0_9UCIEngine9benchmarkERSiEUlS4_E_E10_M_managerERSt9_Any_dataRKSA_St18_Manager_operation:
	.seh_endprologue
	testl	%r8d, %r8d
	je	.L335
	cmpl	$1, %r8d
	jne	.L340
	movq	%rdx, (%rcx)
.L338:
	xorl	%eax, %eax
	ret
	.p2align 4,,10
	.p2align 3
.L340:
	cmpl	$2, %r8d
	jne	.L338
	movq	(%rdx), %rdx
	movq	%rdx, (%rcx)
	jmp	.L338
	.p2align 4,,10
	.p2align 3
.L335:
	leaq	_ZTIZN9Stockfish9UCIEngine9benchmarkERSiEUlRKNS_6Search8InfoFullEE_(%rip), %rax
	movq	%rax, (%rcx)
	xorl	%eax, %eax
	ret
	.seh_endproc
	.p2align 4
	.def	_ZNSt17_Function_handlerIFvRKN9Stockfish6Search13InfoIterationEEZNS0_9UCIEngine9benchmarkERSiEUlRKT_E_E9_M_invokeERKSt9_Any_dataS4_;	.scl	3;	.type	32;	.endef
	.seh_proc	_ZNSt17_Function_handlerIFvRKN9Stockfish6Search13InfoIterationEEZNS0_9UCIEngine9benchmarkERSiEUlRKT_E_E9_M_invokeERKSt9_Any_dataS4_
_ZNSt17_Function_handlerIFvRKN9Stockfish6Search13InfoIterationEEZNS0_9UCIEngine9benchmarkERSiEUlRKT_E_E9_M_invokeERKSt9_Any_dataS4_:
	.seh_endprologue
	ret
	.seh_endproc
	.p2align 4
	.def	_ZNSt17_Function_handlerIFvRKN9Stockfish6Search9InfoShortEEZNS0_9UCIEngine9benchmarkERSiEUlRKT_E0_E9_M_invokeERKSt9_Any_dataS4_;	.scl	3;	.type	32;	.endef
	.seh_proc	_ZNSt17_Function_handlerIFvRKN9Stockfish6Search9InfoShortEEZNS0_9UCIEngine9benchmarkERSiEUlRKT_E0_E9_M_invokeERKSt9_Any_dataS4_
_ZNSt17_Function_handlerIFvRKN9Stockfish6Search9InfoShortEEZNS0_9UCIEngine9benchmarkERSiEUlRKT_E0_E9_M_invokeERKSt9_Any_dataS4_:
	.seh_endprologue
	ret
	.seh_endproc
	.p2align 4
	.def	_ZN9Stockfish12_GLOBAL__N_1L10pawns_compENS_6SquareES1_;	.scl	3;	.type	32;	.endef
	.seh_proc	_ZN9Stockfish12_GLOBAL__N_1L10pawns_compENS_6SquareES1_
_ZN9Stockfish12_GLOBAL__N_1L10pawns_compENS_6SquareES1_:
	.seh_endprologue
	leaq	_ZN9Stockfish12_GLOBAL__N_1L8MapPawnsE(%rip), %rax
	movsbq	%cl, %rcx
	movsbq	%dl, %rdx
	movl	(%rax,%rdx,4), %r8d
	cmpl	%r8d, (%rax,%rcx,4)
	setl	%al
	ret
	.seh_endproc
	.p2align 4
	.def	_ZN9Stockfish12_GLOBAL__N_1L16decompress_pairsEPNS0_9PairsDataEy;	.scl	3;	.type	32;	.endef
	.seh_proc	_ZN9Stockfish12_GLOBAL__N_1L16decompress_pairsEPNS0_9PairsDataEy
_ZN9Stockfish12_GLOBAL__N_1L16decompress_pairsEPNS0_9PairsDataEy:
	pushq	%r15
	.seh_pushreg	%r15
	pushq	%r14
	.seh_pushreg	%r14
	pushq	%r13
	.seh_pushreg	%r13
	pushq	%r12
	.seh_pushreg	%r12
	pushq	%rbp
	.seh_pushreg	%rbp
	pushq	%rdi
	.seh_pushreg	%rdi
	pushq	%rsi
	.seh_pushreg	%rsi
	pushq	%rbx
	.seh_pushreg	%rbx
	.seh_endprologue
	movq	%rcx, %rdi
	movq	%rdx, %rax
	cmpb	$0, (%rcx)
	js	.L381
	movq	16(%rcx), %r9
	xorl	%edx, %edx
	movq	56(%rdi), %rsi
	movzbl	_ZN9StockfishL14IsLittleEndianE.lto_priv.14(%rip), %r13d
	divq	%r9
	movl	%eax, %ecx
	leaq	(%rcx,%rcx,2), %rbx
	leaq	(%rsi,%rbx,2), %rbp
	movl	0(%rbp), %r8d
	movzwl	4(%rbp), %r10d
	testb	%r13b, %r13b
	je	.L382
.L347:
	shrq	%r9
	movzwl	%r10w, %r11d
	movq	40(%rdi), %r12
	subl	%r9d, %edx
	movl	%edx, %ecx
	addl	%r11d, %ecx
	jns	.L350
	.p2align 5
	.p2align 4
	.p2align 3
.L351:
	leal	-1(%r8), %r10d
	movzwl	(%r12,%r10,2), %r14d
	movq	%r10, %r8
	leal	1(%r14,%rcx), %ecx
	testl	%ecx, %ecx
	js	.L351
.L352:
	cmpl	%r14d, %ecx
	jle	.L353
	.p2align 5
	.p2align 4
	.p2align 3
.L354:
	leal	1(%r8), %r10d
	addl	$1, %r14d
	subl	%r14d, %ecx
	movzwl	(%r12,%r10,2), %r14d
	movq	%r10, %r8
	cmpl	%ecx, %r14d
	jl	.L354
.L353:
	imulq	8(%rdi), %r10
	addq	72(%rdi), %r10
	movq	(%r10), %rdx
	testb	%r13b, %r13b
	jne	.L383
.L357:
	movq	80(%rdi), %r8
	movq	%rdi, 72(%rsp)
	addq	$8, %r10
	movl	$64, %esi
	movzbl	2(%rdi), %ebp
	movq	24(%rdi), %r15
	movq	(%r8), %r14
	movq	104(%rdi), %r11
	vmovdqu	.LC12(%rip), %xmm2
	.p2align 4
	.p2align 3
.L358:
	cmpq	%r14, %rdx
	jnb	.L371
.L385:
	movl	$1, %r12d
	.p2align 5
	.p2align 4
	.p2align 3
.L360:
	movq	%r12, %rbx
	addq	$1, %r12
	movq	-8(%r8,%r12,8), %rax
	cmpq	%rax, %rdx
	jb	.L360
	movl	$64, %r9d
	movl	%ebx, %edi
	leaq	(%r15,%rbx,2), %r12
	subl	%ebx, %r9d
.L359:
	movzwl	(%r12), %r12d
	movq	%rdx, %rbx
	subl	%ebp, %r9d
	subq	%rax, %rbx
	movl	%r12d, %eax
	shrx	%r9, %rbx, %r9
	rolw	$8, %ax
	testb	%r13b, %r13b
	cmovne	%r12d, %eax
	addl	%r9d, %eax
	movzwl	%ax, %eax
	movzbl	(%r11,%rax), %ebx
	movl	%ebx, %r12d
	cmpl	%ecx, %ebx
	jge	.L384
	leal	0(%rbp,%rdi), %edi
	addl	$1, %ebx
	subl	%edi, %esi
	subl	%ebx, %ecx
	shlx	%rdi, %rdx, %rdx
	cmpl	$32, %esi
	jg	.L358
	vmovd	(%r10), %xmm1
	addl	$32, %esi
	leaq	4(%r10), %r9
	testb	%r13b, %r13b
	je	.L367
	vpshufb	%xmm2, %xmm1, %xmm1
.L367:
	movl	%esi, %r10d
	vmovd	%xmm1, %r12d
	negl	%r10d
	shlx	%r10, %r12, %rax
	orq	%rax, %rdx
	movq	%r9, %r10
	cmpq	%r14, %rdx
	jb	.L385
.L371:
	movq	%r15, %r12
	movq	%r14, %rax
	movl	$64, %r9d
	xorl	%edi, %edi
	jmp	.L359
	.p2align 4,,10
	.p2align 3
.L384:
	movq	72(%rsp), %r13
	movq	32(%r13), %r15
	jmp	.L369
	.p2align 6
	.p2align 4,,10
	.p2align 3
.L370:
	movswq	%ax, %rsi
	movzbl	(%r11,%rsi), %ebx
	cmpl	%ebx, %ecx
	jg	.L368
	movzbl	(%r11,%rsi), %r12d
	movzwl	%ax, %eax
.L369:
	leaq	(%rax,%rax,2), %r14
	addq	%r15, %r14
	movzbl	1(%r14), %ebp
	movzbl	(%r14), %r8d
	movl	%ebp, %eax
	sall	$8, %eax
	andw	$3840, %ax
	orl	%r8d, %eax
	testb	%r12b, %r12b
	jne	.L370
	cwtl
	popq	%rbx
	popq	%rsi
	popq	%rdi
	popq	%rbp
	popq	%r12
	popq	%r13
	popq	%r14
	popq	%r15
	ret
	.p2align 4,,10
	.p2align 3
.L368:
	movzbl	2(%r14), %edi
	shrb	$4, %bpl
	addl	$1, %ebx
	movzbl	%bpl, %edx
	subl	%ebx, %ecx
	sall	$4, %edi
	orl	%edx, %edi
	movswq	%di, %r9
	movzwl	%di, %eax
	movzbl	(%r11,%r9), %r12d
	jmp	.L369
.L383:
	vmovdqu	.LC12(%rip), %xmm0
	movq	%rdx, %r15
	vmovd	%edx, %xmm5
	shrq	$32, %r15
	vmovq	%r15, %xmm1
	vpshufb	%xmm0, %xmm5, %xmm4
	vpshufb	%xmm0, %xmm1, %xmm3
	vmovd	%xmm4, %eax
	salq	$32, %rax
	vmovd	%xmm3, %edx
	orq	%rax, %rdx
	jmp	.L357
.L382:
	vmovd	%r8d, %xmm3
	rolw	$8, %r10w
	vpshufb	.LC12(%rip), %xmm3, %xmm2
	vmovd	%xmm2, %r8d
	jmp	.L347
.L381:
	movzbl	2(%rcx), %eax
	popq	%rbx
	popq	%rsi
	popq	%rdi
	popq	%rbp
	popq	%r12
	popq	%r13
	popq	%r14
	popq	%r15
	ret
.L350:
	movl	%r8d, %r10d
	movzwl	(%r12,%r10,2), %r14d
	jmp	.L352
	.seh_endproc
	.p2align 4
	.def	_ZN9Stockfish12_GLOBAL__N_1L10set_symlenEPNS0_9PairsDataEtRSt6vectorIbSaIbEE;	.scl	3;	.type	32;	.endef
	.seh_proc	_ZN9Stockfish12_GLOBAL__N_1L10set_symlenEPNS0_9PairsDataEtRSt6vectorIbSaIbEE
_ZN9Stockfish12_GLOBAL__N_1L10set_symlenEPNS0_9PairsDataEtRSt6vectorIbSaIbEE:
	pushq	%rsi
	.seh_pushreg	%rsi
	pushq	%rbx
	.seh_pushreg	%rbx
	subq	$56, %rsp
	.seh_stackalloc	56
	.seh_endprologue
	movl	$1, %eax
	movq	(%r8), %r11
	movzwl	%dx, %r9d
	shlx	%edx, %eax, %edx
	movq	%r9, %r10
	leaq	(%r9,%r9,2), %rsi
	addq	32(%rcx), %rsi
	shrq	$5, %r10
	orl	%edx, (%r11,%r10,4)
	movzbl	1(%rsi), %edx
	movzbl	2(%rsi), %r9d
	movl	%edx, %ebx
	shrb	$4, %bl
	sall	$4, %r9d
	movzbl	%bl, %r10d
	xorl	%ebx, %ebx
	orl	%r10d, %r9d
	cmpw	$4095, %r9w
	je	.L386
	sall	$8, %edx
	movzbl	(%rsi), %esi
	andw	$3840, %dx
	orl	%esi, %edx
	movswq	%dx, %r10
	shlx	%edx, %eax, %eax
	movq	%r10, %rbx
	shrq	$5, %rbx
	andl	(%r11,%rbx,4), %eax
	je	.L392
.L388:
	movswq	%r9w, %rbx
	movl	$1, %esi
	movq	%rbx, %rdx
	shlx	%r9d, %esi, %eax
	shrq	$5, %rdx
	andl	(%r11,%rdx,4), %eax
	je	.L393
.L389:
	movq	104(%rcx), %rcx
	movzbl	(%rcx,%rbx), %r8d
	movzbl	(%rcx,%r10), %r11d
	leal	1(%r8,%r11), %ebx
.L386:
	movl	%ebx, %eax
	addq	$56, %rsp
	popq	%rbx
	popq	%rsi
	ret
	.p2align 4,,10
	.p2align 3
.L392:
	movswl	%dx, %edx
	movl	%r9d, 44(%rsp)
	movq	%r10, 32(%rsp)
	movq	%r8, 96(%rsp)
	movq	%rcx, 80(%rsp)
	call	_ZN9Stockfish12_GLOBAL__N_1L10set_symlenEPNS0_9PairsDataEtRSt6vectorIbSaIbEE
	movq	80(%rsp), %rcx
	movq	32(%rsp), %r10
	movl	44(%rsp), %r9d
	movq	104(%rcx), %r8
	movb	%al, (%r8,%r10)
	movq	96(%rsp), %r8
	movq	(%r8), %r11
	jmp	.L388
	.p2align 4,,10
	.p2align 3
.L393:
	movswl	%r9w, %edx
	movq	%r10, 32(%rsp)
	movq	%rcx, 80(%rsp)
	call	_ZN9Stockfish12_GLOBAL__N_1L10set_symlenEPNS0_9PairsDataEtRSt6vectorIbSaIbEE
	movq	80(%rsp), %rcx
	movq	104(%rcx), %r10
	movb	%al, (%r10,%rbx)
	movq	32(%rsp), %r10
	jmp	.L389
	.seh_endproc
	.align 2
	.p2align 4
	.def	_ZN9Stockfish4Eval4NNUE16AccumulatorStack5resetEv;	.scl	3;	.type	32;	.endef
	.seh_proc	_ZN9Stockfish4Eval4NNUE16AccumulatorStack5resetEv
_ZN9Stockfish4Eval4NNUE16AccumulatorStack5resetEv:
	pushq	%rdi
	.seh_pushreg	%rdi
	.seh_endprologue
	xorl	%eax, %eax
	xorl	%r8d, %r8d
	xorl	%r9d, %r9d
	movl	$0, 4864(%rcx)
	movq	%rcx, %rdx
	movw	%ax, 4160(%rcx)
	leaq	1222080(%rdx), %rdi
	xorl	%eax, %eax
	movl	$0, 4867(%rcx)
	xorl	%ecx, %ecx
	movw	%cx, 4800(%rdx)
	movl	$52, %ecx
	rep stosq
	movw	%r8w, 1221376(%rdx)
	movw	%r9w, 1222016(%rdx)
	movq	$1, 2529280(%rdx)
	popq	%rdi
	ret
	.seh_endproc
	.align 2
	.p2align 4
	.def	_ZN9Stockfish4Eval4NNUE8Features11HalfKAv2_hm22append_changed_indicesENS_5ColorENS_6SquareERKNS_10DirtyPieceERNS_9ValueListIjLy32EEESB_.isra.0;	.scl	3;	.type	32;	.endef
	.seh_proc	_ZN9Stockfish4Eval4NNUE8Features11HalfKAv2_hm22append_changed_indicesENS_5ColorENS_6SquareERKNS_10DirtyPieceERNS_9ValueListIjLy32EEESB_.isra.0
_ZN9Stockfish4Eval4NNUE8Features11HalfKAv2_hm22append_changed_indicesENS_5ColorENS_6SquareERKNS_10DirtyPieceERNS_9ValueListIjLy32EEESB_.isra.0:
	pushq	%r14
	.seh_pushreg	%r14
	pushq	%r13
	.seh_pushreg	%r13
	pushq	%r12
	.seh_pushreg	%r12
	pushq	%rbp
	.seh_pushreg	%rbp
	pushq	%rdi
	.seh_pushreg	%rdi
	pushq	%rsi
	.seh_pushreg	%rsi
	pushq	%rbx
	.seh_pushreg	%rbx
	.seh_endprologue
	leaq	_ZN9Stockfish4Eval4NNUE8Features11HalfKAv2_hm9OrientTBLE(%rip), %rbp
	leaq	_ZN9Stockfish4Eval4NNUE8Features11HalfKAv2_hm16PieceSquareIndexE(%rip), %r12
	movq	136(%rsp), %rbx
	movzbl	96(%rsp), %r11d
	movzbl	104(%rsp), %r10d
	movq	144(%rsp), %rsi
	movsbq	%dl, %rax
	movsbl	%dl, %edi
	movsbq	%cl, %rdx
	movsbq	%r8b, %r13
	movsbl	%cl, %r8d
	movq	%rdx, %rcx
	movl	0(%rbp,%rax,4), %ebp
	movsbl	%r9b, %r9d
	negl	%r8d
	salq	$4, %rcx
	leaq	_ZN9Stockfish4Eval4NNUE8Features11HalfKAv2_hm11KingBucketsE(%rip), %rax
	addq	%r13, %rcx
	andl	$56, %r8d
	xorl	%ebp, %r9d
	movq	128(%rbx), %r13
	movl	(%r12,%rcx,4), %r14d
	xorl	%r8d, %edi
	xorl	%r8d, %r9d
	movl	(%rax,%rdi,4), %edi
	leaq	1(%r13), %rcx
	addl	%r14d, %r9d
	movq	%rcx, 128(%rbx)
	addl	%edi, %r9d
	movl	%r9d, (%rbx,%r13,4)
	cmpb	$64, %r11b
	je	.L396
	movsbl	%r11b, %r11d
	movq	128(%rsi), %r13
	xorl	%ebp, %r11d
	xorl	%r8d, %r11d
	leaq	1(%r13), %rax
	addl	%r14d, %r11d
	movq	%rax, 128(%rsi)
	addl	%edi, %r11d
	movl	%r11d, (%rsi,%r13,4)
.L396:
	cmpb	$64, %r10b
	je	.L397
	movsbl	%r10b, %r14d
	movq	%rdx, %rcx
	movsbq	120(%rsp), %r10
	movq	128(%rbx), %r9
	salq	$4, %rcx
	xorl	%ebp, %r14d
	addq	%r10, %rcx
	xorl	%r8d, %r14d
	leaq	1(%r9), %r13
	addl	(%r12,%rcx,4), %r14d
	movq	%r13, 128(%rbx)
	addl	%edi, %r14d
	movl	%r14d, (%rbx,%r9,4)
.L397:
	cmpb	$64, 112(%rsp)
	je	.L408
	movsbl	112(%rsp), %ebx
	salq	$4, %rdx
	xorl	%ebp, %ebx
	movq	128(%rsi), %rbp
	xorl	%r8d, %ebx
	movsbq	128(%rsp), %r8
	addq	%r8, %rdx
	addl	(%r12,%rdx,4), %ebx
	leaq	1(%rbp), %r12
	addl	%edi, %ebx
	movq	%r12, 128(%rsi)
	movl	%ebx, (%rsi,%rbp,4)
.L408:
	popq	%rbx
	popq	%rsi
	popq	%rdi
	popq	%rbp
	popq	%r12
	popq	%r13
	popq	%r14
	ret
	.seh_endproc
	.p2align 4
	.def	_ZN9Stockfish4Eval4NNUE12_GLOBAL__N_1L17double_inc_updateILj1024EEEvNS_5ColorERKNS1_18FeatureTransformerIXT_EEENS_6SquareERNS1_16AccumulatorStateINS1_8Features11HalfKAv2_hmEEESE_RKSD_;	.scl	3;	.type	32;	.endef
	.seh_proc	_ZN9Stockfish4Eval4NNUE12_GLOBAL__N_1L17double_inc_updateILj1024EEEvNS_5ColorERKNS1_18FeatureTransformerIXT_EEENS_6SquareERNS1_16AccumulatorStateINS1_8Features11HalfKAv2_hmEEESE_RKSD_
_ZN9Stockfish4Eval4NNUE12_GLOBAL__N_1L17double_inc_updateILj1024EEEvNS_5ColorERKNS1_18FeatureTransformerIXT_EEENS_6SquareERNS1_16AccumulatorStateINS1_8Features11HalfKAv2_hmEEESE_RKSD_:
	pushq	%r14
	.seh_pushreg	%r14
	pushq	%r13
	.seh_pushreg	%r13
	pushq	%r12
	.seh_pushreg	%r12
	pushq	%rbp
	.seh_pushreg	%rbp
	pushq	%rdi
	.seh_pushreg	%rdi
	pushq	%rsi
	.seh_pushreg	%rsi
	pushq	%rbx
	.seh_pushreg	%rbx
	subq	$384, %rsp
	.seh_stackalloc	384
	.seh_endprologue
	movq	480(%rsp), %rsi
	movq	%r9, %rax
	movsbl	%r8b, %ebp
	movsbl	%cl, %r12d
	movsbq	%cl, %rdi
	movzbl	4868(%r9), %r8d
	movq	%rdx, %rbx
	movzbl	4867(%r9), %ecx
	leaq	240(%rsp), %r13
	movzbl	4866(%r9), %edx
	movzbl	4870(%rax), %r10d
	leaq	96(%rsp), %r14
	movq	$0, 224(%rsp)
	movzbl	4869(%r9), %r9d
	movb	%cl, 40(%rsp)
	movl	%r12d, %ecx
	movq	%r13, 72(%rsp)
	movb	%r10b, 64(%rsp)
	movb	%dl, 32(%rsp)
	movl	%ebp, %edx
	movq	%r14, 80(%rsp)
	movb	%r9b, 56(%rsp)
	movb	%r8b, 48(%rsp)
	movzbl	4865(%rax), %r9d
	movzbl	4864(%rax), %r8d
	movl	$0, 240(%rsp)
	movl	$0, 244(%rsp)
	movq	$0, 368(%rsp)
	movl	$0, 96(%rsp)
	call	_ZN9Stockfish4Eval4NNUE8Features11HalfKAv2_hm22append_changed_indicesENS_5ColorENS_6SquareERKNS_10DirtyPieceERNS_9ValueListIjLy32EEESB_.isra.0
	movq	%r13, 72(%rsp)
	movq	%r14, 80(%rsp)
	movzbl	4870(%rsi), %r11d
	movb	%r11b, 64(%rsp)
	movzbl	4869(%rsi), %eax
	movb	%al, 56(%rsp)
	movzbl	4868(%rsi), %edx
	movb	%dl, 48(%rsp)
	movzbl	4867(%rsi), %ecx
	movl	%ebp, %edx
	movb	%cl, 40(%rsp)
	movzbl	4866(%rsi), %r8d
	movl	%r12d, %ecx
	movb	%r8b, 32(%rsp)
	movzbl	4865(%rsi), %r9d
	movzbl	4864(%rsi), %r8d
	call	_ZN9Stockfish4Eval4NNUE8Features11HalfKAv2_hm22append_changed_indicesENS_5ColorENS_6SquareERKNS_10DirtyPieceERNS_9ValueListIjLy32EEESB_.isra.0
	movl	240(%rsp), %r13d
	movl	96(%rsp), %ebp
	movq	%rdi, %r9
	movl	244(%rsp), %r12d
	salq	$11, %r9
	movl	%r13d, %ecx
	movl	%ebp, %r8d
	sall	$10, %ecx
	movl	%r12d, %edx
	sall	$10, %r8d
	sall	$10, %edx
	addq	%rcx, %rcx
	addq	%r8, %r8
	addq	%rdx, %rdx
	cmpq	$2, 368(%rsp)
	je	.L430
	movl	248(%rsp), %r14d
	addq	%rbx, %r8
	addq	%rbx, %rcx
	xorl	%eax, %eax
	addq	%rbx, %rdx
	movl	%r14d, %r10d
	sall	$10, %r10d
	leaq	2048(%rbx,%r10,2), %r11
	movq	488(%rsp), %r10
	addq	%r9, %r10
	addq	%rsi, %r9
	.p2align 4
	.p2align 3
.L413:
	vmovdqu	(%r10,%rax), %ymm0
	vpaddw	2048(%r8,%rax), %ymm0, %ymm1
	vpsubw	(%r11,%rax), %ymm1, %ymm2
	vpsubw	2048(%rdx,%rax), %ymm2, %ymm3
	vpsubw	2048(%rcx,%rax), %ymm3, %ymm4
	vmovdqu	%ymm4, (%r9,%rax)
	vmovdqu	32(%r10,%rax), %ymm5
	vpaddw	2080(%r8,%rax), %ymm5, %ymm0
	vpsubw	32(%r11,%rax), %ymm0, %ymm1
	vpsubw	2080(%rdx,%rax), %ymm1, %ymm2
	vpsubw	2080(%rcx,%rax), %ymm2, %ymm3
	vmovdqu	%ymm3, 32(%r9,%rax)
	vmovdqu	64(%r10,%rax), %ymm4
	vpaddw	2112(%r8,%rax), %ymm4, %ymm5
	vpsubw	64(%r11,%rax), %ymm5, %ymm0
	vpsubw	2112(%rdx,%rax), %ymm0, %ymm1
	vpsubw	2112(%rcx,%rax), %ymm1, %ymm2
	vmovdqu	%ymm2, 64(%r9,%rax)
	vmovdqu	96(%r10,%rax), %ymm3
	vpaddw	2144(%r8,%rax), %ymm3, %ymm4
	vpsubw	96(%r11,%rax), %ymm4, %ymm5
	vpsubw	2144(%rdx,%rax), %ymm5, %ymm0
	vpsubw	2144(%rcx,%rax), %ymm0, %ymm1
	vmovdqu	%ymm1, 96(%r9,%rax)
	vmovdqu	128(%r10,%rax), %ymm2
	vpaddw	2176(%r8,%rax), %ymm2, %ymm3
	vpsubw	128(%r11,%rax), %ymm3, %ymm4
	vpsubw	2176(%rdx,%rax), %ymm4, %ymm5
	vpsubw	2176(%rcx,%rax), %ymm5, %ymm0
	vmovdqu	%ymm0, 128(%r9,%rax)
	vmovdqu	160(%r10,%rax), %ymm1
	vpaddw	2208(%r8,%rax), %ymm1, %ymm2
	vpsubw	160(%r11,%rax), %ymm2, %ymm3
	vpsubw	2208(%rdx,%rax), %ymm3, %ymm4
	vpsubw	2208(%rcx,%rax), %ymm4, %ymm5
	vmovdqu	%ymm5, 160(%r9,%rax)
	vmovdqu	192(%r10,%rax), %ymm0
	vpaddw	2240(%r8,%rax), %ymm0, %ymm1
	vpsubw	192(%r11,%rax), %ymm1, %ymm2
	vpsubw	2240(%rdx,%rax), %ymm2, %ymm3
	vpsubw	2240(%rcx,%rax), %ymm3, %ymm4
	vmovdqu	%ymm4, 192(%r9,%rax)
	vmovdqu	224(%r10,%rax), %ymm5
	vpaddw	2272(%r8,%rax), %ymm5, %ymm0
	vpsubw	224(%r11,%rax), %ymm0, %ymm1
	vpsubw	2272(%rdx,%rax), %ymm1, %ymm2
	vpsubw	2272(%rcx,%rax), %ymm2, %ymm3
	vmovdqu	%ymm3, 224(%r9,%rax)
	addq	$256, %rax
	cmpq	$2048, %rax
	jne	.L413
	movq	488(%rsp), %rcx
	movq	%rdi, %r8
	addq	$127911936, %rbx
	leal	0(,%r13,8), %r13d
	salq	$5, %r8
	leal	0(,%r12,8), %r12d
	vmovdqu	(%rbx,%r13,4), %ymm4
	leal	0(,%rbp,8), %ebp
	vpaddd	(%rbx,%r12,4), %ymm4, %ymm5
	leal	0(,%r14,8), %edx
	vmovdqu	4096(%rcx,%r8), %ymm0
	vpsubd	%ymm5, %ymm0, %ymm1
	vpaddd	(%rbx,%rbp,4), %ymm1, %ymm2
	vpsubd	(%rbx,%rdx,4), %ymm2, %ymm3
	vmovdqu	%ymm3, 4096(%rsi,%r8)
.L412:
	movb	$1, 4160(%rsi,%rdi)
	vzeroupper
	addq	$384, %rsp
	popq	%rbx
	popq	%rsi
	popq	%rdi
	popq	%rbp
	popq	%r12
	popq	%r13
	popq	%r14
	ret
.L430:
	addq	%rbx, %r8
	addq	%rbx, %rcx
	addq	%rbx, %rdx
	xorl	%r11d, %r11d
	movq	488(%rsp), %r14
	addq	%r9, %r14
	addq	%rsi, %r9
	.p2align 4
	.p2align 3
.L411:
	vmovdqu	(%r14,%r11), %ymm4
	vpaddw	2048(%r8,%r11), %ymm4, %ymm5
	vpsubw	2048(%rdx,%r11), %ymm5, %ymm0
	vpsubw	2048(%rcx,%r11), %ymm0, %ymm1
	vmovdqu	%ymm1, (%r9,%r11)
	vmovdqu	32(%r14,%r11), %ymm2
	vpaddw	2080(%r8,%r11), %ymm2, %ymm3
	vpsubw	2080(%rdx,%r11), %ymm3, %ymm4
	vpsubw	2080(%rcx,%r11), %ymm4, %ymm5
	vmovdqu	%ymm5, 32(%r9,%r11)
	vmovdqu	64(%r14,%r11), %ymm0
	vpaddw	2112(%r8,%r11), %ymm0, %ymm1
	vpsubw	2112(%rdx,%r11), %ymm1, %ymm2
	vpsubw	2112(%rcx,%r11), %ymm2, %ymm3
	vmovdqu	%ymm3, 64(%r9,%r11)
	vmovdqu	96(%r14,%r11), %ymm4
	vpaddw	2144(%r8,%r11), %ymm4, %ymm5
	vpsubw	2144(%rdx,%r11), %ymm5, %ymm0
	vpsubw	2144(%rcx,%r11), %ymm0, %ymm1
	vmovdqu	%ymm1, 96(%r9,%r11)
	vmovdqu	128(%r14,%r11), %ymm2
	vpaddw	2176(%r8,%r11), %ymm2, %ymm3
	vpsubw	2176(%rdx,%r11), %ymm3, %ymm4
	vpsubw	2176(%rcx,%r11), %ymm4, %ymm5
	vmovdqu	%ymm5, 128(%r9,%r11)
	vmovdqu	160(%r14,%r11), %ymm0
	vpaddw	2208(%r8,%r11), %ymm0, %ymm1
	vpsubw	2208(%rdx,%r11), %ymm1, %ymm2
	vpsubw	2208(%rcx,%r11), %ymm2, %ymm3
	vmovdqu	%ymm3, 160(%r9,%r11)
	vmovdqu	192(%r14,%r11), %ymm4
	vpaddw	2240(%r8,%r11), %ymm4, %ymm5
	vpsubw	2240(%rdx,%r11), %ymm5, %ymm0
	vpsubw	2240(%rcx,%r11), %ymm0, %ymm1
	vmovdqu	%ymm1, 192(%r9,%r11)
	vmovdqu	224(%r14,%r11), %ymm2
	vpaddw	2272(%r8,%r11), %ymm2, %ymm3
	vpsubw	2272(%rdx,%r11), %ymm3, %ymm4
	vpsubw	2272(%rcx,%r11), %ymm4, %ymm5
	vmovdqu	%ymm5, 224(%r9,%r11)
	addq	$256, %r11
	cmpq	$2048, %r11
	jne	.L411
	movq	488(%rsp), %rax
	movq	%rdi, %r9
	addq	$127911936, %rbx
	leal	0(,%r13,8), %r8d
	salq	$5, %r9
	leal	0(,%rbp,8), %r10d
	leal	0(,%r12,8), %r13d
	vmovdqu	(%rbx,%r10,4), %ymm0
	vpaddd	4096(%rax,%r9), %ymm0, %ymm1
	vpsubd	(%rbx,%r13,4), %ymm1, %ymm2
	vpsubd	(%rbx,%r8,4), %ymm2, %ymm3
	vmovdqu	%ymm3, 4096(%rsi,%r9)
	jmp	.L412
	.seh_endproc
	.p2align 4
	.def	_ZN9Stockfish4Eval4NNUE12_GLOBAL__N_1L30update_accumulator_incrementalILb1ENS1_8Features11HalfKAv2_hmELj1024EEEvNS_5ColorERKNS1_18FeatureTransformerIXT1_EEENS_6SquareERNS1_16AccumulatorStateIT0_EERKSE_;	.scl	3;	.type	32;	.endef
	.seh_proc	_ZN9Stockfish4Eval4NNUE12_GLOBAL__N_1L30update_accumulator_incrementalILb1ENS1_8Features11HalfKAv2_hmELj1024EEEvNS_5ColorERKNS1_18FeatureTransformerIXT1_EEENS_6SquareERNS1_16AccumulatorStateIT0_EERKSE_
_ZN9Stockfish4Eval4NNUE12_GLOBAL__N_1L30update_accumulator_incrementalILb1ENS1_8Features11HalfKAv2_hmELj1024EEEvNS_5ColorERKNS1_18FeatureTransformerIXT1_EEENS_6SquareERNS1_16AccumulatorStateIT0_EERKSE_:
	pushq	%r14
	.seh_pushreg	%r14
	pushq	%r13
	.seh_pushreg	%r13
	pushq	%r12
	.seh_pushreg	%r12
	pushq	%rbp
	.seh_pushreg	%rbp
	pushq	%rdi
	.seh_pushreg	%rdi
	pushq	%rsi
	.seh_pushreg	%rsi
	pushq	%rbx
	.seh_pushreg	%rbx
	subq	$384, %rsp
	.seh_stackalloc	384
	.seh_endprologue
	movzbl	4866(%r9), %eax
	movq	%r9, %rbx
	movzbl	4867(%r9), %r9d
	movq	%rdx, %rsi
	movl	%ecx, %edi
	movzbl	4870(%rbx), %ebp
	movsbl	%r8b, %edx
	leaq	96(%rsp), %r8
	movsbl	%cl, %ecx
	movzbl	4868(%rbx), %r10d
	movsbq	%dil, %rdi
	movzbl	4869(%rbx), %r11d
	leaq	240(%rsp), %r12
	movq	%r12, 72(%rsp)
	movb	%bpl, 64(%rsp)
	movq	%r8, 80(%rsp)
	movb	%r11b, 56(%rsp)
	movb	%r10b, 48(%rsp)
	movb	%r9b, 40(%rsp)
	movb	%al, 32(%rsp)
	movzbl	4864(%rbx), %r8d
	movzbl	4865(%rbx), %r9d
	movl	$0, 240(%rsp)
	movl	$0, 244(%rsp)
	movq	$0, 368(%rsp)
	movl	$0, 96(%rsp)
	movq	$0, 224(%rsp)
	call	_ZN9Stockfish4Eval4NNUE8Features11HalfKAv2_hm22append_changed_indicesENS_5ColorENS_6SquareERKNS_10DirtyPieceERNS_9ValueListIjLy32EEESB_.isra.0
	movl	240(%rsp), %ebp
	movl	96(%rsp), %r12d
	movq	%rdi, %r8
	salq	$11, %r8
	movl	%ebp, %edx
	movl	%r12d, %ecx
	sall	$10, %edx
	sall	$10, %ecx
	addq	%rdx, %rdx
	addq	%rcx, %rcx
	cmpq	$1, 368(%rsp)
	je	.L463
	movl	244(%rsp), %r13d
	movl	%r13d, %r10d
	sall	$10, %r10d
	addq	%r10, %r10
	cmpq	$1, 224(%rsp)
	je	.L464
	movl	100(%rsp), %r14d
	addq	%rsi, %rcx
	addq	%rsi, %rdx
	addq	%rsi, %r10
	movq	480(%rsp), %r11
	movl	%r14d, %eax
	sall	$10, %eax
	addq	%r8, %r11
	addq	%rbx, %r8
	leaq	2048(%rsi,%rax,2), %r9
	xorl	%eax, %eax
	.p2align 4
	.p2align 3
.L437:
	vmovdqu	(%r11,%rax), %ymm0
	vpaddw	2048(%rcx,%rax), %ymm0, %ymm1
	vpaddw	(%r9,%rax), %ymm1, %ymm2
	vpsubw	2048(%r10,%rax), %ymm2, %ymm3
	vpsubw	2048(%rdx,%rax), %ymm3, %ymm4
	vmovdqu	%ymm4, (%r8,%rax)
	vmovdqu	32(%r11,%rax), %ymm5
	vpaddw	2080(%rcx,%rax), %ymm5, %ymm0
	vpaddw	32(%r9,%rax), %ymm0, %ymm1
	vpsubw	2080(%r10,%rax), %ymm1, %ymm2
	vpsubw	2080(%rdx,%rax), %ymm2, %ymm3
	vmovdqu	%ymm3, 32(%r8,%rax)
	vmovdqu	64(%r11,%rax), %ymm4
	vpaddw	2112(%rcx,%rax), %ymm4, %ymm5
	vpaddw	64(%r9,%rax), %ymm5, %ymm0
	vpsubw	2112(%r10,%rax), %ymm0, %ymm1
	vpsubw	2112(%rdx,%rax), %ymm1, %ymm2
	vmovdqu	%ymm2, 64(%r8,%rax)
	vmovdqu	96(%r11,%rax), %ymm3
	vpaddw	2144(%rcx,%rax), %ymm3, %ymm4
	vpaddw	96(%r9,%rax), %ymm4, %ymm5
	vpsubw	2144(%r10,%rax), %ymm5, %ymm0
	vpsubw	2144(%rdx,%rax), %ymm0, %ymm1
	vmovdqu	%ymm1, 96(%r8,%rax)
	vmovdqu	128(%r11,%rax), %ymm2
	vpaddw	2176(%rcx,%rax), %ymm2, %ymm3
	vpaddw	128(%r9,%rax), %ymm3, %ymm4
	vpsubw	2176(%r10,%rax), %ymm4, %ymm5
	vpsubw	2176(%rdx,%rax), %ymm5, %ymm0
	vmovdqu	%ymm0, 128(%r8,%rax)
	vmovdqu	160(%r11,%rax), %ymm1
	vpaddw	2208(%rcx,%rax), %ymm1, %ymm2
	vpaddw	160(%r9,%rax), %ymm2, %ymm3
	vpsubw	2208(%r10,%rax), %ymm3, %ymm4
	vpsubw	2208(%rdx,%rax), %ymm4, %ymm5
	vmovdqu	%ymm5, 160(%r8,%rax)
	vmovdqu	192(%r11,%rax), %ymm0
	vpaddw	2240(%rcx,%rax), %ymm0, %ymm1
	vpaddw	192(%r9,%rax), %ymm1, %ymm2
	vpsubw	2240(%r10,%rax), %ymm2, %ymm3
	vpsubw	2240(%rdx,%rax), %ymm3, %ymm4
	vmovdqu	%ymm4, 192(%r8,%rax)
	vmovdqu	224(%r11,%rax), %ymm5
	vpaddw	2272(%rcx,%rax), %ymm5, %ymm0
	vpaddw	224(%r9,%rax), %ymm0, %ymm1
	vpsubw	2272(%r10,%rax), %ymm1, %ymm2
	vpsubw	2272(%rdx,%rax), %ymm2, %ymm3
	vmovdqu	%ymm3, 224(%r8,%rax)
	addq	$256, %rax
	cmpq	$2048, %rax
	jne	.L437
	addq	$127911936, %rsi
	leal	0(,%r12,8), %r12d
	leal	0(,%r14,8), %edx
	movq	%rdi, %r8
	vmovdqu	(%rsi,%r12,4), %ymm4
	vpaddd	(%rsi,%rdx,4), %ymm4, %ymm5
	salq	$5, %r8
.L462:
	movq	480(%rsp), %r10
	leal	0(,%rbp,8), %ebp
	leal	0(,%r13,8), %r13d
	vpaddd	4096(%r10,%r8), %ymm5, %ymm2
	vpsubd	(%rsi,%r13,4), %ymm2, %ymm3
	vpsubd	(%rsi,%rbp,4), %ymm3, %ymm4
	vmovdqu	%ymm4, 4096(%rbx,%r8)
.L434:
	movb	$1, 4160(%rbx,%rdi)
	vzeroupper
	addq	$384, %rsp
	popq	%rbx
	popq	%rsi
	popq	%rdi
	popq	%rbp
	popq	%r12
	popq	%r13
	popq	%r14
	ret
.L464:
	addq	%rsi, %rcx
	addq	%rsi, %rdx
	addq	%rsi, %r10
	xorl	%r9d, %r9d
	movq	480(%rsp), %r14
	addq	%r8, %r14
	addq	%rbx, %r8
	.p2align 4
	.p2align 3
.L436:
	vmovdqu	(%r14,%r9), %ymm0
	vpaddw	2048(%rcx,%r9), %ymm0, %ymm1
	vpsubw	2048(%r10,%r9), %ymm1, %ymm2
	vpsubw	2048(%rdx,%r9), %ymm2, %ymm3
	vmovdqu	%ymm3, (%r8,%r9)
	vmovdqu	32(%r14,%r9), %ymm4
	vpaddw	2080(%rcx,%r9), %ymm4, %ymm5
	vpsubw	2080(%r10,%r9), %ymm5, %ymm0
	vpsubw	2080(%rdx,%r9), %ymm0, %ymm1
	vmovdqu	%ymm1, 32(%r8,%r9)
	vmovdqu	64(%r14,%r9), %ymm2
	vpaddw	2112(%rcx,%r9), %ymm2, %ymm3
	vpsubw	2112(%r10,%r9), %ymm3, %ymm4
	vpsubw	2112(%rdx,%r9), %ymm4, %ymm5
	vmovdqu	%ymm5, 64(%r8,%r9)
	vmovdqu	96(%r14,%r9), %ymm0
	vpaddw	2144(%rcx,%r9), %ymm0, %ymm1
	vpsubw	2144(%r10,%r9), %ymm1, %ymm2
	vpsubw	2144(%rdx,%r9), %ymm2, %ymm3
	vmovdqu	%ymm3, 96(%r8,%r9)
	vmovdqu	128(%r14,%r9), %ymm4
	vpaddw	2176(%rcx,%r9), %ymm4, %ymm5
	vpsubw	2176(%r10,%r9), %ymm5, %ymm0
	vpsubw	2176(%rdx,%r9), %ymm0, %ymm1
	vmovdqu	%ymm1, 128(%r8,%r9)
	vmovdqu	160(%r14,%r9), %ymm2
	vpaddw	2208(%rcx,%r9), %ymm2, %ymm3
	vpsubw	2208(%r10,%r9), %ymm3, %ymm4
	vpsubw	2208(%rdx,%r9), %ymm4, %ymm5
	vmovdqu	%ymm5, 160(%r8,%r9)
	vmovdqu	192(%r14,%r9), %ymm0
	vpaddw	2240(%rcx,%r9), %ymm0, %ymm1
	vpsubw	2240(%r10,%r9), %ymm1, %ymm2
	vpsubw	2240(%rdx,%r9), %ymm2, %ymm3
	vmovdqu	%ymm3, 192(%r8,%r9)
	vmovdqu	224(%r14,%r9), %ymm4
	vpaddw	2272(%rcx,%r9), %ymm4, %ymm5
	vpsubw	2272(%r10,%r9), %ymm5, %ymm0
	vpsubw	2272(%rdx,%r9), %ymm0, %ymm1
	vmovdqu	%ymm1, 224(%r8,%r9)
	addq	$256, %r9
	cmpq	$2048, %r9
	jne	.L436
	addq	$127911936, %rsi
	movq	%rdi, %r8
	leal	0(,%r12,8), %ecx
	vmovdqu	(%rsi,%rcx,4), %ymm5
	salq	$5, %r8
	jmp	.L462
.L463:
	movq	480(%rsp), %r14
	leaq	(%rsi,%rcx), %r11
	addq	%rsi, %rdx
	xorl	%eax, %eax
	addq	%r8, %r14
	addq	%rbx, %r8
	.p2align 4
	.p2align 3
.L433:
	vmovdqu	(%r14,%rax), %ymm5
	vpaddw	2048(%r11,%rax), %ymm5, %ymm0
	vpsubw	2048(%rdx,%rax), %ymm0, %ymm1
	vmovdqu	%ymm1, (%r8,%rax)
	vmovdqu	32(%r14,%rax), %ymm2
	vpaddw	2080(%r11,%rax), %ymm2, %ymm3
	vpsubw	2080(%rdx,%rax), %ymm3, %ymm4
	vmovdqu	%ymm4, 32(%r8,%rax)
	vmovdqu	64(%r14,%rax), %ymm5
	vpaddw	2112(%r11,%rax), %ymm5, %ymm0
	vpsubw	2112(%rdx,%rax), %ymm0, %ymm1
	vmovdqu	%ymm1, 64(%r8,%rax)
	vmovdqu	96(%r14,%rax), %ymm2
	vpaddw	2144(%r11,%rax), %ymm2, %ymm3
	vpsubw	2144(%rdx,%rax), %ymm3, %ymm4
	vmovdqu	%ymm4, 96(%r8,%rax)
	vmovdqu	128(%r14,%rax), %ymm5
	vpaddw	2176(%r11,%rax), %ymm5, %ymm0
	vpsubw	2176(%rdx,%rax), %ymm0, %ymm1
	vmovdqu	%ymm1, 128(%r8,%rax)
	vmovdqu	160(%r14,%rax), %ymm2
	vpaddw	2208(%r11,%rax), %ymm2, %ymm3
	vpsubw	2208(%rdx,%rax), %ymm3, %ymm4
	vmovdqu	%ymm4, 160(%r8,%rax)
	vmovdqu	192(%r14,%rax), %ymm5
	vpaddw	2240(%r11,%rax), %ymm5, %ymm0
	vpsubw	2240(%rdx,%rax), %ymm0, %ymm1
	vmovdqu	%ymm1, 192(%r8,%rax)
	vmovdqu	224(%r14,%rax), %ymm2
	vpaddw	2272(%r11,%rax), %ymm2, %ymm3
	vpsubw	2272(%rdx,%rax), %ymm3, %ymm4
	vmovdqu	%ymm4, 224(%r8,%rax)
	addq	$256, %rax
	cmpq	$2048, %rax
	jne	.L433
	leal	0(,%r12,8), %r12d
	leal	0(,%rbp,8), %edx
	movq	%rdi, %r8
	vmovdqu	127911936(%rsi,%r12,4), %ymm5
	salq	$5, %r8
	vpsubd	127911936(%rsi,%rdx,4), %ymm5, %ymm0
	movq	480(%rsp), %rsi
	vpaddd	4096(%rsi,%r8), %ymm0, %ymm1
	vmovdqu	%ymm1, 4096(%rbx,%r8)
	jmp	.L434
	.seh_endproc
	.p2align 4
	.def	_ZN9Stockfish4Eval4NNUE12_GLOBAL__N_1L30update_accumulator_incrementalILb0ENS1_8Features11HalfKAv2_hmELj1024EEEvNS_5ColorERKNS1_18FeatureTransformerIXT1_EEENS_6SquareERNS1_16AccumulatorStateIT0_EERKSE_;	.scl	3;	.type	32;	.endef
	.seh_proc	_ZN9Stockfish4Eval4NNUE12_GLOBAL__N_1L30update_accumulator_incrementalILb0ENS1_8Features11HalfKAv2_hmELj1024EEEvNS_5ColorERKNS1_18FeatureTransformerIXT1_EEENS_6SquareERNS1_16AccumulatorStateIT0_EERKSE_
_ZN9Stockfish4Eval4NNUE12_GLOBAL__N_1L30update_accumulator_incrementalILb0ENS1_8Features11HalfKAv2_hmELj1024EEEvNS_5ColorERKNS1_18FeatureTransformerIXT1_EEENS_6SquareERNS1_16AccumulatorStateIT0_EERKSE_:
	pushq	%r15
	.seh_pushreg	%r15
	pushq	%r14
	.seh_pushreg	%r14
	pushq	%r13
	.seh_pushreg	%r13
	pushq	%r12
	.seh_pushreg	%r12
	pushq	%rbp
	.seh_pushreg	%rbp
	pushq	%rdi
	.seh_pushreg	%rdi
	pushq	%rsi
	.seh_pushreg	%rsi
	pushq	%rbx
	.seh_pushreg	%rbx
	subq	$392, %rsp
	.seh_stackalloc	392
	.seh_endprologue
	movq	496(%rsp), %rsi
	movzbl	4870(%rsi), %r12d
	movzbl	4866(%rsi), %eax
	movzbl	4868(%rsi), %r10d
	movzbl	4869(%rsi), %r11d
	movq	%r9, %rdi
	movzbl	4867(%rsi), %r9d
	movq	%rdx, %rbx
	movl	%ecx, %ebp
	movsbl	%r8b, %edx
	leaq	96(%rsp), %r13
	movb	%al, 32(%rsp)
	movsbl	%cl, %ecx
	leaq	240(%rsp), %r8
	movq	%r13, 72(%rsp)
	movsbq	%bpl, %rbp
	movb	%r12b, 64(%rsp)
	movq	%r8, 80(%rsp)
	movb	%r11b, 56(%rsp)
	movb	%r10b, 48(%rsp)
	movb	%r9b, 40(%rsp)
	movzbl	4864(%rsi), %r8d
	movzbl	4865(%rsi), %r9d
	movl	$0, 96(%rsp)
	movl	$0, 100(%rsp)
	movq	$0, 224(%rsp)
	movl	$0, 240(%rsp)
	movq	$0, 368(%rsp)
	call	_ZN9Stockfish4Eval4NNUE8Features11HalfKAv2_hm22append_changed_indicesENS_5ColorENS_6SquareERKNS_10DirtyPieceERNS_9ValueListIjLy32EEESB_.isra.0
	movl	96(%rsp), %r13d
	movl	240(%rsp), %r12d
	movq	%rbp, %r8
	salq	$11, %r8
	movl	%r12d, %edx
	movl	%r13d, %ecx
	sall	$10, %edx
	sall	$10, %ecx
	addq	%rdx, %rdx
	addq	%rcx, %rcx
	cmpq	$1, 224(%rsp)
	je	.L496
	movl	100(%rsp), %r14d
	movl	%r14d, %r10d
	sall	$10, %r10d
	addq	%r10, %r10
	cmpq	$1, 368(%rsp)
	je	.L497
	leaq	(%rsi,%r8), %r11
	addq	%rbx, %rcx
	addq	%rbx, %r10
	addq	%rbx, %rdx
	movl	244(%rsp), %r15d
	addq	%rdi, %r8
	movl	%r15d, %eax
	sall	$10, %eax
	leaq	2048(%rbx,%rax,2), %r9
	xorl	%eax, %eax
	.p2align 4
	.p2align 3
.L471:
	vmovdqu	(%r11,%rax), %ymm0
	vpaddw	2048(%rcx,%rax), %ymm0, %ymm1
	vpaddw	2048(%r10,%rax), %ymm1, %ymm2
	vpsubw	(%r9,%rax), %ymm2, %ymm3
	vpsubw	2048(%rdx,%rax), %ymm3, %ymm4
	vmovdqu	%ymm4, (%r8,%rax)
	vmovdqu	32(%r11,%rax), %ymm5
	vpaddw	2080(%rcx,%rax), %ymm5, %ymm0
	vpaddw	2080(%r10,%rax), %ymm0, %ymm1
	vpsubw	32(%r9,%rax), %ymm1, %ymm2
	vpsubw	2080(%rdx,%rax), %ymm2, %ymm3
	vmovdqu	%ymm3, 32(%r8,%rax)
	vmovdqu	64(%r11,%rax), %ymm4
	vpaddw	2112(%rcx,%rax), %ymm4, %ymm5
	vpaddw	2112(%r10,%rax), %ymm5, %ymm0
	vpsubw	64(%r9,%rax), %ymm0, %ymm1
	vpsubw	2112(%rdx,%rax), %ymm1, %ymm2
	vmovdqu	%ymm2, 64(%r8,%rax)
	vmovdqu	96(%r11,%rax), %ymm3
	vpaddw	2144(%rcx,%rax), %ymm3, %ymm4
	vpaddw	2144(%r10,%rax), %ymm4, %ymm5
	vpsubw	96(%r9,%rax), %ymm5, %ymm0
	vpsubw	2144(%rdx,%rax), %ymm0, %ymm1
	vmovdqu	%ymm1, 96(%r8,%rax)
	vmovdqu	128(%r11,%rax), %ymm2
	vpaddw	2176(%rcx,%rax), %ymm2, %ymm3
	vpaddw	2176(%r10,%rax), %ymm3, %ymm4
	vpsubw	128(%r9,%rax), %ymm4, %ymm5
	vpsubw	2176(%rdx,%rax), %ymm5, %ymm0
	vmovdqu	%ymm0, 128(%r8,%rax)
	vmovdqu	160(%r11,%rax), %ymm1
	vpaddw	2208(%rcx,%rax), %ymm1, %ymm2
	vpaddw	2208(%r10,%rax), %ymm2, %ymm3
	vpsubw	160(%r9,%rax), %ymm3, %ymm4
	vpsubw	2208(%rdx,%rax), %ymm4, %ymm5
	vmovdqu	%ymm5, 160(%r8,%rax)
	vmovdqu	192(%r11,%rax), %ymm0
	vpaddw	2240(%rcx,%rax), %ymm0, %ymm1
	vpaddw	2240(%r10,%rax), %ymm1, %ymm2
	vpsubw	192(%r9,%rax), %ymm2, %ymm3
	vpsubw	2240(%rdx,%rax), %ymm3, %ymm4
	vmovdqu	%ymm4, 192(%r8,%rax)
	vmovdqu	224(%r11,%rax), %ymm5
	vpaddw	2272(%rcx,%rax), %ymm5, %ymm0
	vpaddw	2272(%r10,%rax), %ymm0, %ymm1
	vpsubw	224(%r9,%rax), %ymm1, %ymm2
	vpsubw	2272(%rdx,%rax), %ymm2, %ymm3
	vmovdqu	%ymm3, 224(%r8,%rax)
	addq	$256, %rax
	cmpq	$2048, %rax
	jne	.L471
	movq	%rbp, %r8
	addq	$127911936, %rbx
	leal	0(,%r13,8), %r13d
	salq	$5, %r8
	leal	0(,%r14,8), %edx
	vmovdqu	(%rbx,%r13,4), %ymm4
	vpaddd	(%rbx,%rdx,4), %ymm4, %ymm5
	vpaddd	4096(%rsi,%r8), %ymm5, %ymm0
	leal	0(,%r12,8), %esi
	leal	0(,%r15,8), %r12d
	vpsubd	(%rbx,%r12,4), %ymm0, %ymm1
	vpsubd	(%rbx,%rsi,4), %ymm1, %ymm2
	vmovdqu	%ymm2, 4096(%rdi,%r8)
.L468:
	movb	$1, 4160(%rdi,%rbp)
	vzeroupper
	addq	$392, %rsp
	popq	%rbx
	popq	%rsi
	popq	%rdi
	popq	%rbp
	popq	%r12
	popq	%r13
	popq	%r14
	popq	%r15
	ret
.L497:
	leaq	(%rsi,%r8), %r15
	addq	%rbx, %rcx
	addq	%rbx, %r10
	addq	%rbx, %rdx
	addq	%rdi, %r8
	xorl	%r9d, %r9d
	.p2align 4
	.p2align 3
.L470:
	vmovdqu	(%r15,%r9), %ymm3
	vpaddw	2048(%rcx,%r9), %ymm3, %ymm4
	vpaddw	2048(%r10,%r9), %ymm4, %ymm5
	vpsubw	2048(%rdx,%r9), %ymm5, %ymm0
	vmovdqu	%ymm0, (%r8,%r9)
	vmovdqu	32(%r15,%r9), %ymm1
	vpaddw	2080(%rcx,%r9), %ymm1, %ymm2
	vpaddw	2080(%r10,%r9), %ymm2, %ymm3
	vpsubw	2080(%rdx,%r9), %ymm3, %ymm4
	vmovdqu	%ymm4, 32(%r8,%r9)
	vmovdqu	64(%r15,%r9), %ymm5
	vpaddw	2112(%rcx,%r9), %ymm5, %ymm0
	vpaddw	2112(%r10,%r9), %ymm0, %ymm1
	vpsubw	2112(%rdx,%r9), %ymm1, %ymm2
	vmovdqu	%ymm2, 64(%r8,%r9)
	vmovdqu	96(%r15,%r9), %ymm3
	vpaddw	2144(%rcx,%r9), %ymm3, %ymm4
	vpaddw	2144(%r10,%r9), %ymm4, %ymm5
	vpsubw	2144(%rdx,%r9), %ymm5, %ymm0
	vmovdqu	%ymm0, 96(%r8,%r9)
	vmovdqu	128(%r15,%r9), %ymm1
	vpaddw	2176(%rcx,%r9), %ymm1, %ymm2
	vpaddw	2176(%r10,%r9), %ymm2, %ymm3
	vpsubw	2176(%rdx,%r9), %ymm3, %ymm4
	vmovdqu	%ymm4, 128(%r8,%r9)
	vmovdqu	160(%r15,%r9), %ymm5
	vpaddw	2208(%rcx,%r9), %ymm5, %ymm0
	vpaddw	2208(%r10,%r9), %ymm0, %ymm1
	vpsubw	2208(%rdx,%r9), %ymm1, %ymm2
	vmovdqu	%ymm2, 160(%r8,%r9)
	vmovdqu	192(%r15,%r9), %ymm3
	vpaddw	2240(%rcx,%r9), %ymm3, %ymm4
	vpaddw	2240(%r10,%r9), %ymm4, %ymm5
	vpsubw	2240(%rdx,%r9), %ymm5, %ymm0
	vmovdqu	%ymm0, 192(%r8,%r9)
	vmovdqu	224(%r15,%r9), %ymm1
	vpaddw	2272(%rcx,%r9), %ymm1, %ymm2
	vpaddw	2272(%r10,%r9), %ymm2, %ymm3
	vpsubw	2272(%rdx,%r9), %ymm3, %ymm4
	vmovdqu	%ymm4, 224(%r8,%r9)
	addq	$256, %r9
	cmpq	$2048, %r9
	jne	.L470
	movq	%rbp, %r10
	addq	$127911936, %rbx
	leal	0(,%r13,8), %ecx
	salq	$5, %r10
	leal	0(,%r14,8), %r14d
	vmovdqu	(%rbx,%rcx,4), %ymm5
	leal	0(,%r12,8), %r11d
	vpaddd	(%rbx,%r14,4), %ymm5, %ymm0
	vpaddd	4096(%rsi,%r10), %ymm0, %ymm1
	vpsubd	(%rbx,%r11,4), %ymm1, %ymm2
	vmovdqu	%ymm2, 4096(%rdi,%r10)
	jmp	.L468
.L496:
	leaq	(%rsi,%r8), %r9
	leaq	(%rbx,%rcx), %r15
	addq	%rbx, %rdx
	addq	%rdi, %r8
	xorl	%eax, %eax
	.p2align 4
	.p2align 3
.L467:
	vmovdqu	(%r9,%rax), %ymm3
	vpaddw	2048(%r15,%rax), %ymm3, %ymm4
	vpsubw	2048(%rdx,%rax), %ymm4, %ymm5
	vmovdqu	%ymm5, (%r8,%rax)
	vmovdqu	32(%r9,%rax), %ymm0
	vpaddw	2080(%r15,%rax), %ymm0, %ymm1
	vpsubw	2080(%rdx,%rax), %ymm1, %ymm2
	vmovdqu	%ymm2, 32(%r8,%rax)
	vmovdqu	64(%r9,%rax), %ymm3
	vpaddw	2112(%r15,%rax), %ymm3, %ymm4
	vpsubw	2112(%rdx,%rax), %ymm4, %ymm5
	vmovdqu	%ymm5, 64(%r8,%rax)
	vmovdqu	96(%r9,%rax), %ymm0
	vpaddw	2144(%r15,%rax), %ymm0, %ymm1
	vpsubw	2144(%rdx,%rax), %ymm1, %ymm2
	vmovdqu	%ymm2, 96(%r8,%rax)
	vmovdqu	128(%r9,%rax), %ymm3
	vpaddw	2176(%r15,%rax), %ymm3, %ymm4
	vpsubw	2176(%rdx,%rax), %ymm4, %ymm5
	vmovdqu	%ymm5, 128(%r8,%rax)
	vmovdqu	160(%r9,%rax), %ymm0
	vpaddw	2208(%r15,%rax), %ymm0, %ymm1
	vpsubw	2208(%rdx,%rax), %ymm1, %ymm2
	vmovdqu	%ymm2, 160(%r8,%rax)
	vmovdqu	192(%r9,%rax), %ymm3
	vpaddw	2240(%r15,%rax), %ymm3, %ymm4
	vpsubw	2240(%rdx,%rax), %ymm4, %ymm5
	vmovdqu	%ymm5, 192(%r8,%rax)
	vmovdqu	224(%r9,%rax), %ymm0
	vpaddw	2272(%r15,%rax), %ymm0, %ymm1
	vpsubw	2272(%rdx,%rax), %ymm1, %ymm2
	vmovdqu	%ymm2, 224(%r8,%rax)
	addq	$256, %rax
	cmpq	$2048, %rax
	jne	.L467
	movq	%rbp, %r8
	leal	0(,%r13,8), %r13d
	leal	0(,%r12,8), %edx
	vmovdqu	127911936(%rbx,%r13,4), %ymm3
	salq	$5, %r8
	vpsubd	127911936(%rbx,%rdx,4), %ymm3, %ymm4
	vpaddd	4096(%rsi,%r8), %ymm4, %ymm5
	vmovdqu	%ymm5, 4096(%rdi,%r8)
	jmp	.L468
	.seh_endproc
	.p2align 4
	.def	_ZN9Stockfish4Eval4NNUE12_GLOBAL__N_1L17double_inc_updateILj128EEEvNS_5ColorERKNS1_18FeatureTransformerIXT_EEENS_6SquareERNS1_16AccumulatorStateINS1_8Features11HalfKAv2_hmEEESE_RKSD_;	.scl	3;	.type	32;	.endef
	.seh_proc	_ZN9Stockfish4Eval4NNUE12_GLOBAL__N_1L17double_inc_updateILj128EEEvNS_5ColorERKNS1_18FeatureTransformerIXT_EEENS_6SquareERNS1_16AccumulatorStateINS1_8Features11HalfKAv2_hmEEESE_RKSD_
_ZN9Stockfish4Eval4NNUE12_GLOBAL__N_1L17double_inc_updateILj128EEEvNS_5ColorERKNS1_18FeatureTransformerIXT_EEENS_6SquareERNS1_16AccumulatorStateINS1_8Features11HalfKAv2_hmEEESE_RKSD_:
	pushq	%r15
	.seh_pushreg	%r15
	pushq	%r14
	.seh_pushreg	%r14
	pushq	%r13
	.seh_pushreg	%r13
	pushq	%r12
	.seh_pushreg	%r12
	pushq	%rbp
	.seh_pushreg	%rbp
	pushq	%rdi
	.seh_pushreg	%rdi
	pushq	%rsi
	.seh_pushreg	%rsi
	pushq	%rbx
	.seh_pushreg	%rbx
	subq	$392, %rsp
	.seh_stackalloc	392
	.seh_endprologue
	movq	496(%rsp), %rsi
	movq	504(%rsp), %rdi
	movq	%r9, %rax
	movl	%ecx, %r12d
	movsbl	%r8b, %ebp
	movq	%rdx, %rbx
	movzbl	4870(%rax), %r10d
	movzbl	4866(%r9), %edx
	leaq	96(%rsp), %r15
	leaq	240(%rsp), %r14
	movzbl	4867(%r9), %ecx
	movzbl	4868(%r9), %r8d
	movq	$0, 224(%rsp)
	movzbl	4869(%r9), %r9d
	movb	%dl, 32(%rsp)
	movl	%ebp, %edx
	movb	%r10b, 64(%rsp)
	movq	%r15, 80(%rsp)
	movq	%r14, 72(%rsp)
	movb	%cl, 40(%rsp)
	movsbl	%r12b, %ecx
	movb	%r9b, 56(%rsp)
	movb	%r8b, 48(%rsp)
	movzbl	4865(%rax), %r9d
	movzbl	4864(%rax), %r8d
	movl	$0, 240(%rsp)
	movl	$0, 244(%rsp)
	movq	$0, 368(%rsp)
	movl	$0, 96(%rsp)
	call	_ZN9Stockfish4Eval4NNUE8Features11HalfKAv2_hm22append_changed_indicesENS_5ColorENS_6SquareERKNS_10DirtyPieceERNS_9ValueListIjLy32EEESB_.isra.0
	movq	%r15, 80(%rsp)
	movq	%r14, 72(%rsp)
	movzbl	4870(%rsi), %r11d
	movb	%r11b, 64(%rsp)
	movzbl	4869(%rsi), %r13d
	movb	%r13b, 56(%rsp)
	movzbl	4868(%rsi), %eax
	movb	%al, 48(%rsp)
	movzbl	4867(%rsi), %edx
	movb	%dl, 40(%rsp)
	movzbl	4866(%rsi), %ecx
	movl	%ebp, %edx
	movb	%cl, 32(%rsp)
	movzbl	4864(%rsi), %r8d
	movsbl	%r12b, %ecx
	movzbl	4865(%rsi), %r9d
	call	_ZN9Stockfish4Eval4NNUE8Features11HalfKAv2_hm22append_changed_indicesENS_5ColorENS_6SquareERKNS_10DirtyPieceERNS_9ValueListIjLy32EEESB_.isra.0
	movl	244(%rsp), %ebp
	movl	96(%rsp), %r14d
	movsbq	%r12b, %r10
	movl	240(%rsp), %r15d
	movq	%r10, %rax
	movl	%ebp, %r11d
	movl	%r14d, %r13d
	salq	$8, %rax
	sall	$7, %r11d
	movl	%r15d, %r8d
	sall	$7, %r13d
	sall	$7, %r8d
	cmpq	$2, 368(%rsp)
	je	.L501
	movl	248(%rsp), %r12d
	leal	0(,%r15,8), %ecx
	vmovdqu	256(%rbx,%r8,2), %ymm1
	leal	0(,%rbp,8), %r15d
	vpaddw	256(%rbx,%r11,2), %ymm1, %ymm2
	vmovdqu	4224(%rdi,%rax), %ymm0
	movl	%r12d, %r9d
	leal	0(,%r12,8), %ebp
	sall	$7, %r9d
	vpsubw	%ymm2, %ymm0, %ymm3
	vpaddw	256(%rbx,%r13,2), %ymm3, %ymm4
	leaq	256(%rbx,%r9,2), %rdx
	vpsubw	(%rdx), %ymm4, %ymm5
	vmovdqu	%ymm5, 4224(%rsi,%rax)
	vmovdqu	288(%rbx,%r8,2), %ymm1
	vmovdqu	4256(%rdi,%rax), %ymm0
	vpaddw	288(%rbx,%r11,2), %ymm1, %ymm2
	vpsubw	%ymm2, %ymm0, %ymm3
	vpaddw	288(%rbx,%r13,2), %ymm3, %ymm4
	vpsubw	32(%rdx), %ymm4, %ymm5
	vmovdqu	%ymm5, 4256(%rsi,%rax)
	vmovdqu	320(%rbx,%r8,2), %ymm1
	vmovdqu	4288(%rdi,%rax), %ymm0
	vpaddw	320(%rbx,%r11,2), %ymm1, %ymm2
	vpsubw	%ymm2, %ymm0, %ymm3
	vpaddw	320(%rbx,%r13,2), %ymm3, %ymm4
	vpsubw	64(%rdx), %ymm4, %ymm5
	vmovdqu	%ymm5, 4288(%rsi,%rax)
	vmovdqu	352(%rbx,%r8,2), %ymm1
	vmovdqu	4320(%rdi,%rax), %ymm0
	vpaddw	352(%rbx,%r11,2), %ymm1, %ymm2
	vpsubw	%ymm2, %ymm0, %ymm3
	vpaddw	352(%rbx,%r13,2), %ymm3, %ymm4
	vpsubw	96(%rdx), %ymm4, %ymm5
	vmovdqu	%ymm5, 4320(%rsi,%rax)
	vmovdqu	384(%rbx,%r8,2), %ymm1
	vmovdqu	4352(%rdi,%rax), %ymm0
	vpaddw	384(%rbx,%r11,2), %ymm1, %ymm2
	vpsubw	%ymm2, %ymm0, %ymm3
	vpaddw	384(%rbx,%r13,2), %ymm3, %ymm4
	vpsubw	128(%rdx), %ymm4, %ymm5
	vmovdqu	%ymm5, 4352(%rsi,%rax)
	vmovdqu	416(%rbx,%r8,2), %ymm1
	vpaddw	416(%rbx,%r11,2), %ymm1, %ymm2
	vmovdqu	4384(%rdi,%rax), %ymm0
	vpsubw	%ymm2, %ymm0, %ymm3
	vpaddw	416(%rbx,%r13,2), %ymm3, %ymm4
	vpsubw	160(%rdx), %ymm4, %ymm5
	vmovdqu	%ymm5, 4384(%rsi,%rax)
	vmovdqu	448(%rbx,%r8,2), %ymm1
	vmovdqu	4416(%rdi,%rax), %ymm0
	vpaddw	448(%rbx,%r11,2), %ymm1, %ymm2
	vpsubw	%ymm2, %ymm0, %ymm3
	vpaddw	448(%rbx,%r13,2), %ymm3, %ymm4
	vpsubw	192(%rdx), %ymm4, %ymm5
	vmovdqu	%ymm5, 4416(%rsi,%rax)
	vmovdqu	480(%rbx,%r8,2), %ymm1
	vmovdqu	4448(%rdi,%rax), %ymm0
	vpaddw	480(%rbx,%r11,2), %ymm1, %ymm2
	movq	%r10, %r11
	salq	$5, %r11
	vpsubw	%ymm2, %ymm0, %ymm3
	vpaddw	480(%rbx,%r13,2), %ymm3, %ymm4
	addq	$5767488, %rbx
	vpsubw	224(%rdx), %ymm4, %ymm5
	vmovdqu	%ymm5, 4448(%rsi,%rax)
	vmovdqu	(%rbx,%rcx,4), %ymm1
	vmovdqu	4736(%rdi,%r11), %ymm0
	leal	0(,%r14,8), %edi
	vpaddd	(%rbx,%r15,4), %ymm1, %ymm2
	vpsubd	%ymm2, %ymm0, %ymm3
	vpaddd	(%rbx,%rdi,4), %ymm3, %ymm4
	vpsubd	(%rbx,%rbp,4), %ymm4, %ymm5
	vmovdqu	%ymm5, 4736(%rsi,%r11)
.L500:
	movb	$1, 4800(%rsi,%r10)
	vzeroupper
	addq	$392, %rsp
	popq	%rbx
	popq	%rsi
	popq	%rdi
	popq	%rbp
	popq	%r12
	popq	%r13
	popq	%r14
	popq	%r15
	ret
	.p2align 4,,10
	.p2align 3
.L501:
	vmovdqu	256(%rbx,%r13,2), %ymm1
	leal	0(,%r14,8), %r14d
	vpaddw	4224(%rdi,%rax), %ymm1, %ymm2
	vpsubw	256(%rbx,%r8,2), %ymm2, %ymm0
	vpsubw	256(%rbx,%r11,2), %ymm0, %ymm3
	vmovdqu	%ymm3, 4224(%rsi,%rax)
	vmovdqu	288(%rbx,%r13,2), %ymm4
	vpaddw	4256(%rdi,%rax), %ymm4, %ymm5
	vpsubw	288(%rbx,%r8,2), %ymm5, %ymm1
	vpsubw	288(%rbx,%r11,2), %ymm1, %ymm2
	vmovdqu	%ymm2, 4256(%rsi,%rax)
	vmovdqu	320(%rbx,%r13,2), %ymm0
	vpaddw	4288(%rdi,%rax), %ymm0, %ymm3
	vpsubw	320(%rbx,%r11,2), %ymm3, %ymm4
	vpsubw	320(%rbx,%r8,2), %ymm4, %ymm5
	vmovdqu	%ymm5, 4288(%rsi,%rax)
	vmovdqu	352(%rbx,%r13,2), %ymm1
	vpaddw	4320(%rdi,%rax), %ymm1, %ymm2
	vpsubw	352(%rbx,%r11,2), %ymm2, %ymm0
	vpsubw	352(%rbx,%r8,2), %ymm0, %ymm3
	vmovdqu	%ymm3, 4320(%rsi,%rax)
	vmovdqu	384(%rbx,%r13,2), %ymm4
	vpaddw	4352(%rdi,%rax), %ymm4, %ymm5
	vpsubw	384(%rbx,%r11,2), %ymm5, %ymm1
	vpsubw	384(%rbx,%r8,2), %ymm1, %ymm2
	vmovdqu	%ymm2, 4352(%rsi,%rax)
	vmovdqu	416(%rbx,%r13,2), %ymm0
	vpaddw	4384(%rdi,%rax), %ymm0, %ymm3
	vpsubw	416(%rbx,%r11,2), %ymm3, %ymm4
	vpsubw	416(%rbx,%r8,2), %ymm4, %ymm5
	vmovdqu	%ymm5, 4384(%rsi,%rax)
	vmovdqu	448(%rbx,%r13,2), %ymm1
	vpaddw	4416(%rdi,%rax), %ymm1, %ymm2
	vpsubw	448(%rbx,%r11,2), %ymm2, %ymm0
	vpsubw	448(%rbx,%r8,2), %ymm0, %ymm3
	vmovdqu	%ymm3, 4416(%rsi,%rax)
	vmovdqu	480(%rbx,%r13,2), %ymm4
	vpaddw	4448(%rdi,%rax), %ymm4, %ymm5
	leal	0(,%r15,8), %r13d
	vpsubw	480(%rbx,%r11,2), %ymm5, %ymm1
	vpsubw	480(%rbx,%r8,2), %ymm1, %ymm2
	movq	%r10, %r8
	addq	$5767488, %rbx
	salq	$5, %r8
	vmovdqu	%ymm2, 4448(%rsi,%rax)
	leal	0(,%rbp,8), %eax
	vmovdqu	(%rbx,%r14,4), %ymm0
	vpaddd	4736(%rdi,%r8), %ymm0, %ymm3
	vpsubd	(%rbx,%rax,4), %ymm3, %ymm4
	vpsubd	(%rbx,%r13,4), %ymm4, %ymm5
	vmovdqu	%ymm5, 4736(%rsi,%r8)
	jmp	.L500
	.seh_endproc
	.p2align 4
	.def	_ZN9Stockfish4Eval4NNUE12_GLOBAL__N_1L30update_accumulator_incrementalILb1ENS1_8Features11HalfKAv2_hmELj128EEEvNS_5ColorERKNS1_18FeatureTransformerIXT1_EEENS_6SquareERNS1_16AccumulatorStateIT0_EERKSE_;	.scl	3;	.type	32;	.endef
	.seh_proc	_ZN9Stockfish4Eval4NNUE12_GLOBAL__N_1L30update_accumulator_incrementalILb1ENS1_8Features11HalfKAv2_hmELj128EEEvNS_5ColorERKNS1_18FeatureTransformerIXT1_EEENS_6SquareERNS1_16AccumulatorStateIT0_EERKSE_
_ZN9Stockfish4Eval4NNUE12_GLOBAL__N_1L30update_accumulator_incrementalILb1ENS1_8Features11HalfKAv2_hmELj128EEEvNS_5ColorERKNS1_18FeatureTransformerIXT1_EEENS_6SquareERNS1_16AccumulatorStateIT0_EERKSE_:
	pushq	%r14
	.seh_pushreg	%r14
	pushq	%r13
	.seh_pushreg	%r13
	pushq	%r12
	.seh_pushreg	%r12
	pushq	%rbp
	.seh_pushreg	%rbp
	pushq	%rdi
	.seh_pushreg	%rdi
	pushq	%rsi
	.seh_pushreg	%rsi
	pushq	%rbx
	.seh_pushreg	%rbx
	subq	$384, %rsp
	.seh_stackalloc	384
	.seh_endprologue
	movzbl	4866(%r9), %eax
	movq	480(%rsp), %rdi
	movq	%r9, %rbx
	movzbl	4867(%r9), %r9d
	movq	%rdx, %rsi
	movl	%ecx, %ebp
	movzbl	4869(%rbx), %r11d
	movzbl	4870(%rbx), %r12d
	movsbl	%r8b, %edx
	leaq	240(%rsp), %r13
	movzbl	4868(%rbx), %r10d
	leaq	96(%rsp), %r8
	movq	%r13, 72(%rsp)
	movsbl	%cl, %ecx
	movb	%r12b, 64(%rsp)
	movb	%r11b, 56(%rsp)
	movb	%al, 32(%rsp)
	movq	%r8, 80(%rsp)
	movb	%r10b, 48(%rsp)
	movb	%r9b, 40(%rsp)
	movzbl	4864(%rbx), %r8d
	movzbl	4865(%rbx), %r9d
	movl	$0, 240(%rsp)
	movl	$0, 244(%rsp)
	movq	$0, 368(%rsp)
	movl	$0, 96(%rsp)
	movq	$0, 224(%rsp)
	call	_ZN9Stockfish4Eval4NNUE8Features11HalfKAv2_hm22append_changed_indicesENS_5ColorENS_6SquareERKNS_10DirtyPieceERNS_9ValueListIjLy32EEESB_.isra.0
	movl	96(%rsp), %r13d
	movsbq	%bpl, %r11
	movl	240(%rsp), %r12d
	movq	%r11, %rdx
	leaq	256(%rsi), %rax
	movl	%r12d, %r8d
	movl	%r13d, %ecx
	salq	$8, %rdx
	sall	$7, %r8d
	sall	$7, %ecx
	cmpq	$1, 368(%rsp)
	je	.L507
	movl	244(%rsp), %ebp
	movl	%ebp, %r9d
	sall	$7, %r9d
	cmpq	$1, 224(%rsp)
	je	.L508
	movl	100(%rsp), %r14d
	leal	0(,%r13,8), %r13d
	vmovdqu	256(%rsi,%rcx,2), %ymm0
	movl	%r14d, %r10d
	sall	$7, %r10d
	leaq	(%rax,%r10,2), %r10
	vpaddw	(%r10), %ymm0, %ymm1
	vpaddw	4224(%rdi,%rdx), %ymm1, %ymm2
	vpsubw	(%rax,%r9,2), %ymm2, %ymm3
	vpsubw	256(%rsi,%r8,2), %ymm3, %ymm4
	addq	$5767488, %rsi
	vmovdqu	%ymm4, 4224(%rbx,%rdx)
	vmovdqu	32(%r10), %ymm5
	vpsubw	32(%rax,%r8,2), %ymm5, %ymm0
	vpaddw	4256(%rdi,%rdx), %ymm0, %ymm1
	vpaddw	32(%rax,%rcx,2), %ymm1, %ymm2
	vpsubw	32(%rax,%r9,2), %ymm2, %ymm3
	vmovdqu	%ymm3, 4256(%rbx,%rdx)
	vmovdqu	64(%r10), %ymm4
	vpsubw	64(%rax,%r8,2), %ymm4, %ymm5
	vpaddw	4288(%rdi,%rdx), %ymm5, %ymm0
	vpaddw	64(%rax,%rcx,2), %ymm0, %ymm1
	vpsubw	64(%rax,%r9,2), %ymm1, %ymm2
	vmovdqu	%ymm2, 4288(%rbx,%rdx)
	vmovdqu	96(%r10), %ymm3
	vpsubw	96(%rax,%r8,2), %ymm3, %ymm4
	vpaddw	4320(%rdi,%rdx), %ymm4, %ymm5
	vpaddw	96(%rax,%rcx,2), %ymm5, %ymm0
	vpsubw	96(%rax,%r9,2), %ymm0, %ymm1
	vmovdqu	%ymm1, 4320(%rbx,%rdx)
	vmovdqu	128(%r10), %ymm2
	vpsubw	128(%rax,%r8,2), %ymm2, %ymm3
	vpaddw	4352(%rdi,%rdx), %ymm3, %ymm4
	vpaddw	128(%rax,%rcx,2), %ymm4, %ymm5
	vpsubw	128(%rax,%r9,2), %ymm5, %ymm0
	vmovdqu	%ymm0, 4352(%rbx,%rdx)
	vmovdqu	160(%r10), %ymm1
	vpsubw	160(%rax,%r8,2), %ymm1, %ymm2
	vpaddw	4384(%rdi,%rdx), %ymm2, %ymm3
	vpaddw	160(%rax,%rcx,2), %ymm3, %ymm4
	vpsubw	160(%rax,%r9,2), %ymm4, %ymm5
	vmovdqu	%ymm5, 4384(%rbx,%rdx)
	vmovdqu	192(%r10), %ymm0
	vpsubw	192(%rax,%r8,2), %ymm0, %ymm1
	vpaddw	4416(%rdi,%rdx), %ymm1, %ymm2
	vpaddw	192(%rax,%rcx,2), %ymm2, %ymm3
	vpsubw	192(%rax,%r9,2), %ymm3, %ymm4
	vmovdqu	%ymm4, 4416(%rbx,%rdx)
	vmovdqu	224(%r10), %ymm5
	vpsubw	224(%rax,%r8,2), %ymm5, %ymm0
	leal	0(,%r14,8), %r8d
	vpaddw	4448(%rdi,%rdx), %ymm0, %ymm1
	vpaddw	224(%rax,%rcx,2), %ymm1, %ymm2
	vpsubw	224(%rax,%r9,2), %ymm2, %ymm3
	movq	%r11, %rax
	salq	$5, %rax
	vmovdqu	%ymm3, 4448(%rbx,%rdx)
	vmovdqu	(%rsi,%r13,4), %ymm4
	vpaddd	(%rsi,%r8,4), %ymm4, %ymm5
.L506:
	vpaddd	4736(%rdi,%rax), %ymm5, %ymm2
	leal	0(,%r12,8), %edi
	leal	0(,%rbp,8), %r12d
	vpsubd	(%rsi,%r12,4), %ymm2, %ymm3
	vpsubd	(%rsi,%rdi,4), %ymm3, %ymm4
	vmovdqu	%ymm4, 4736(%rbx,%rax)
.L504:
	movb	$1, 4800(%rbx,%r11)
	vzeroupper
	addq	$384, %rsp
	popq	%rbx
	popq	%rsi
	popq	%rdi
	popq	%rbp
	popq	%r12
	popq	%r13
	popq	%r14
	ret
	.p2align 4,,10
	.p2align 3
.L508:
	vmovdqu	4224(%rdi,%rdx), %ymm0
	vpaddw	256(%rsi,%rcx,2), %ymm0, %ymm1
	vpsubw	(%rax,%r9,2), %ymm1, %ymm2
	vpsubw	256(%rsi,%r8,2), %ymm2, %ymm3
	addq	$5767488, %rsi
	vmovdqu	%ymm3, 4224(%rbx,%rdx)
	vmovdqu	32(%rax,%rcx,2), %ymm4
	vpaddw	4256(%rdi,%rdx), %ymm4, %ymm5
	vpsubw	32(%rax,%r9,2), %ymm5, %ymm0
	vpsubw	32(%rax,%r8,2), %ymm0, %ymm1
	vmovdqu	%ymm1, 4256(%rbx,%rdx)
	vmovdqu	64(%rax,%rcx,2), %ymm2
	vpaddw	4288(%rdi,%rdx), %ymm2, %ymm3
	vpsubw	64(%rax,%r9,2), %ymm3, %ymm4
	vpsubw	64(%rax,%r8,2), %ymm4, %ymm5
	vmovdqu	%ymm5, 4288(%rbx,%rdx)
	vmovdqu	96(%rax,%rcx,2), %ymm0
	vpaddw	4320(%rdi,%rdx), %ymm0, %ymm1
	vpsubw	96(%rax,%r9,2), %ymm1, %ymm2
	vpsubw	96(%rax,%r8,2), %ymm2, %ymm3
	vmovdqu	%ymm3, 4320(%rbx,%rdx)
	vmovdqu	128(%rax,%rcx,2), %ymm4
	vpaddw	4352(%rdi,%rdx), %ymm4, %ymm5
	vpsubw	128(%rax,%r9,2), %ymm5, %ymm0
	vpsubw	128(%rax,%r8,2), %ymm0, %ymm1
	vmovdqu	%ymm1, 4352(%rbx,%rdx)
	vmovdqu	160(%rax,%rcx,2), %ymm2
	vpaddw	4384(%rdi,%rdx), %ymm2, %ymm3
	vpsubw	160(%rax,%r9,2), %ymm3, %ymm4
	vpsubw	160(%rax,%r8,2), %ymm4, %ymm5
	vmovdqu	%ymm5, 4384(%rbx,%rdx)
	vmovdqu	192(%rax,%rcx,2), %ymm0
	vpaddw	4416(%rdi,%rdx), %ymm0, %ymm1
	vpsubw	192(%rax,%r9,2), %ymm1, %ymm2
	vpsubw	192(%rax,%r8,2), %ymm2, %ymm3
	vmovdqu	%ymm3, 4416(%rbx,%rdx)
	vmovdqu	224(%rax,%rcx,2), %ymm4
	vpaddw	4448(%rdi,%rdx), %ymm4, %ymm5
	leal	0(,%r13,8), %ecx
	vpsubw	224(%rax,%r9,2), %ymm5, %ymm0
	vpsubw	224(%rax,%r8,2), %ymm0, %ymm1
	movq	%r11, %rax
	salq	$5, %rax
	vmovdqu	%ymm1, 4448(%rbx,%rdx)
	vmovdqu	(%rsi,%rcx,4), %ymm5
	jmp	.L506
	.p2align 4,,10
	.p2align 3
.L507:
	vmovdqu	256(%rsi,%rcx,2), %ymm5
	movq	%r11, %rbp
	vpsubw	256(%rsi,%r8,2), %ymm5, %ymm0
	leal	0(,%r13,8), %r9d
	vpaddw	4224(%rdi,%rdx), %ymm0, %ymm1
	salq	$5, %rbp
	vmovdqu	%ymm1, 4224(%rbx,%rdx)
	vmovdqu	32(%rax,%rcx,2), %ymm2
	vpsubw	32(%rax,%r8,2), %ymm2, %ymm3
	vpaddw	4256(%rdi,%rdx), %ymm3, %ymm4
	vmovdqu	%ymm4, 4256(%rbx,%rdx)
	vmovdqu	64(%rax,%rcx,2), %ymm5
	vpsubw	64(%rax,%r8,2), %ymm5, %ymm0
	vpaddw	4288(%rdi,%rdx), %ymm0, %ymm1
	vmovdqu	%ymm1, 4288(%rbx,%rdx)
	vmovdqu	96(%rax,%rcx,2), %ymm2
	vpsubw	96(%rax,%r8,2), %ymm2, %ymm3
	vpaddw	4320(%rdi,%rdx), %ymm3, %ymm4
	vmovdqu	%ymm4, 4320(%rbx,%rdx)
	vmovdqu	128(%rax,%rcx,2), %ymm5
	vpsubw	128(%rax,%r8,2), %ymm5, %ymm0
	vpaddw	4352(%rdi,%rdx), %ymm0, %ymm1
	vmovdqu	%ymm1, 4352(%rbx,%rdx)
	vmovdqu	160(%rax,%rcx,2), %ymm2
	vpsubw	160(%rax,%r8,2), %ymm2, %ymm3
	vpaddw	4384(%rdi,%rdx), %ymm3, %ymm4
	vmovdqu	%ymm4, 4384(%rbx,%rdx)
	vmovdqu	192(%rax,%rcx,2), %ymm5
	vpsubw	192(%rax,%r8,2), %ymm5, %ymm0
	vpaddw	4416(%rdi,%rdx), %ymm0, %ymm1
	vmovdqu	%ymm1, 4416(%rbx,%rdx)
	vmovdqu	224(%rax,%rcx,2), %ymm2
	vpsubw	224(%rax,%r8,2), %ymm2, %ymm3
	vpaddw	4448(%rdi,%rdx), %ymm3, %ymm4
	vmovdqu	%ymm4, 4448(%rbx,%rdx)
	leal	0(,%r12,8), %edx
	vmovdqu	5767488(%rsi,%r9,4), %ymm5
	vpsubd	5767488(%rsi,%rdx,4), %ymm5, %ymm0
	vpaddd	4736(%rdi,%rbp), %ymm0, %ymm1
	vmovdqu	%ymm1, 4736(%rbx,%rbp)
	jmp	.L504
	.seh_endproc
	.p2align 4
	.def	_ZN9Stockfish4Eval4NNUE12_GLOBAL__N_1L30update_accumulator_incrementalILb0ENS1_8Features11HalfKAv2_hmELj128EEEvNS_5ColorERKNS1_18FeatureTransformerIXT1_EEENS_6SquareERNS1_16AccumulatorStateIT0_EERKSE_;	.scl	3;	.type	32;	.endef
	.seh_proc	_ZN9Stockfish4Eval4NNUE12_GLOBAL__N_1L30update_accumulator_incrementalILb0ENS1_8Features11HalfKAv2_hmELj128EEEvNS_5ColorERKNS1_18FeatureTransformerIXT1_EEENS_6SquareERNS1_16AccumulatorStateIT0_EERKSE_
_ZN9Stockfish4Eval4NNUE12_GLOBAL__N_1L30update_accumulator_incrementalILb0ENS1_8Features11HalfKAv2_hmELj128EEEvNS_5ColorERKNS1_18FeatureTransformerIXT1_EEENS_6SquareERNS1_16AccumulatorStateIT0_EERKSE_:
	pushq	%r14
	.seh_pushreg	%r14
	pushq	%r13
	.seh_pushreg	%r13
	pushq	%r12
	.seh_pushreg	%r12
	pushq	%rbp
	.seh_pushreg	%rbp
	pushq	%rdi
	.seh_pushreg	%rdi
	pushq	%rsi
	.seh_pushreg	%rsi
	pushq	%rbx
	.seh_pushreg	%rbx
	subq	$384, %rsp
	.seh_stackalloc	384
	.seh_endprologue
	movq	480(%rsp), %rbx
	movzbl	4866(%rbx), %eax
	movzbl	4869(%rbx), %r11d
	movzbl	4870(%rbx), %r12d
	movzbl	4868(%rbx), %r10d
	movq	%r9, %rsi
	movzbl	4867(%rbx), %r9d
	movq	%rdx, %rdi
	movl	%ecx, %ebp
	movsbl	%r8b, %edx
	leaq	96(%rsp), %r13
	movb	%al, 32(%rsp)
	movsbl	%cl, %ecx
	leaq	240(%rsp), %r8
	movq	%r13, 72(%rsp)
	movb	%r12b, 64(%rsp)
	movb	%r11b, 56(%rsp)
	movq	%r8, 80(%rsp)
	movb	%r10b, 48(%rsp)
	movb	%r9b, 40(%rsp)
	movzbl	4864(%rbx), %r8d
	movzbl	4865(%rbx), %r9d
	movl	$0, 96(%rsp)
	movl	$0, 100(%rsp)
	movq	$0, 224(%rsp)
	movl	$0, 240(%rsp)
	movq	$0, 368(%rsp)
	call	_ZN9Stockfish4Eval4NNUE8Features11HalfKAv2_hm22append_changed_indicesENS_5ColorENS_6SquareERKNS_10DirtyPieceERNS_9ValueListIjLy32EEESB_.isra.0
	movl	96(%rsp), %r13d
	movsbq	%bpl, %r11
	movl	240(%rsp), %r12d
	movq	%r11, %rdx
	leaq	256(%rdi), %rax
	movl	%r12d, %ecx
	movl	%r13d, %r8d
	salq	$8, %rdx
	sall	$7, %ecx
	sall	$7, %r8d
	cmpq	$1, 224(%rsp)
	je	.L513
	movl	100(%rsp), %ebp
	movl	%ebp, %r9d
	sall	$7, %r9d
	cmpq	$1, 368(%rsp)
	je	.L514
	movl	244(%rsp), %r14d
	leal	0(,%r13,8), %r13d
	vmovdqu	256(%rdi,%r8,2), %ymm0
	vpaddw	(%rax,%r9,2), %ymm0, %ymm1
	vpaddw	4224(%rbx,%rdx), %ymm1, %ymm2
	movl	%r14d, %r10d
	sall	$7, %r10d
	leaq	(%rax,%r10,2), %r10
	vpsubw	(%r10), %ymm2, %ymm3
	vpsubw	256(%rdi,%rcx,2), %ymm3, %ymm4
	addq	$5767488, %rdi
	vmovdqu	%ymm4, 4224(%rsi,%rdx)
	vmovdqu	32(%rax,%r8,2), %ymm5
	vpaddw	32(%rax,%r9,2), %ymm5, %ymm0
	vpaddw	4256(%rbx,%rdx), %ymm0, %ymm1
	vpsubw	32(%r10), %ymm1, %ymm2
	vpsubw	32(%rax,%rcx,2), %ymm2, %ymm3
	vmovdqu	%ymm3, 4256(%rsi,%rdx)
	vmovdqu	64(%rax,%r8,2), %ymm4
	vpaddw	64(%rax,%r9,2), %ymm4, %ymm5
	vpaddw	4288(%rbx,%rdx), %ymm5, %ymm0
	vpsubw	64(%r10), %ymm0, %ymm1
	vpsubw	64(%rax,%rcx,2), %ymm1, %ymm2
	vmovdqu	%ymm2, 4288(%rsi,%rdx)
	vmovdqu	96(%rax,%r8,2), %ymm3
	vpaddw	96(%rax,%r9,2), %ymm3, %ymm4
	vpaddw	4320(%rbx,%rdx), %ymm4, %ymm5
	vpsubw	96(%r10), %ymm5, %ymm0
	vpsubw	96(%rax,%rcx,2), %ymm0, %ymm1
	vmovdqu	%ymm1, 4320(%rsi,%rdx)
	vmovdqu	128(%rax,%r8,2), %ymm2
	vpaddw	128(%rax,%r9,2), %ymm2, %ymm3
	vpaddw	4352(%rbx,%rdx), %ymm3, %ymm4
	vpsubw	128(%r10), %ymm4, %ymm5
	vpsubw	128(%rax,%rcx,2), %ymm5, %ymm0
	vmovdqu	%ymm0, 4352(%rsi,%rdx)
	vmovdqu	160(%rax,%r8,2), %ymm1
	vpaddw	160(%rax,%r9,2), %ymm1, %ymm2
	vpaddw	4384(%rbx,%rdx), %ymm2, %ymm3
	vpsubw	160(%r10), %ymm3, %ymm4
	vpsubw	160(%rax,%rcx,2), %ymm4, %ymm5
	vmovdqu	%ymm5, 4384(%rsi,%rdx)
	vmovdqu	192(%rax,%r8,2), %ymm0
	vpaddw	192(%rax,%r9,2), %ymm0, %ymm1
	vpaddw	4416(%rbx,%rdx), %ymm1, %ymm2
	vpsubw	192(%r10), %ymm2, %ymm3
	vpsubw	192(%rax,%rcx,2), %ymm3, %ymm4
	vmovdqu	%ymm4, 4416(%rsi,%rdx)
	vmovdqu	224(%rax,%r8,2), %ymm5
	vpaddw	224(%rax,%r9,2), %ymm5, %ymm0
	vpaddw	4448(%rbx,%rdx), %ymm0, %ymm1
	vpsubw	224(%r10), %ymm1, %ymm2
	vpsubw	224(%rax,%rcx,2), %ymm2, %ymm3
	movq	%r11, %rax
	leal	0(,%rbp,8), %ecx
	salq	$5, %rax
	vmovdqu	%ymm3, 4448(%rsi,%rdx)
	vmovdqu	(%rdi,%r13,4), %ymm4
	vpaddd	(%rdi,%rcx,4), %ymm4, %ymm5
	vpaddd	4736(%rbx,%rax), %ymm5, %ymm0
	leal	0(,%r12,8), %ebx
	leal	0(,%r14,8), %r12d
	vpsubd	(%rdi,%r12,4), %ymm0, %ymm1
	vpsubd	(%rdi,%rbx,4), %ymm1, %ymm2
	vmovdqu	%ymm2, 4736(%rsi,%rax)
.L511:
	movb	$1, 4800(%rsi,%r11)
	vzeroupper
	addq	$384, %rsp
	popq	%rbx
	popq	%rsi
	popq	%rdi
	popq	%rbp
	popq	%r12
	popq	%r13
	popq	%r14
	ret
	.p2align 4,,10
	.p2align 3
.L514:
	vmovdqu	256(%rdi,%r8,2), %ymm3
	vpaddw	(%rax,%r9,2), %ymm3, %ymm4
	vpaddw	4224(%rbx,%rdx), %ymm4, %ymm5
	vpsubw	256(%rdi,%rcx,2), %ymm5, %ymm0
	addq	$5767488, %rdi
	vmovdqu	%ymm0, 4224(%rsi,%rdx)
	vmovdqu	32(%rax,%r8,2), %ymm1
	vpaddw	32(%rax,%r9,2), %ymm1, %ymm2
	vpaddw	4256(%rbx,%rdx), %ymm2, %ymm3
	vpsubw	32(%rax,%rcx,2), %ymm3, %ymm4
	vmovdqu	%ymm4, 4256(%rsi,%rdx)
	vmovdqu	64(%rax,%r8,2), %ymm5
	vpaddw	64(%rax,%r9,2), %ymm5, %ymm0
	vpaddw	4288(%rbx,%rdx), %ymm0, %ymm1
	vpsubw	64(%rax,%rcx,2), %ymm1, %ymm2
	vmovdqu	%ymm2, 4288(%rsi,%rdx)
	vmovdqu	96(%rax,%r8,2), %ymm3
	vpaddw	96(%rax,%r9,2), %ymm3, %ymm4
	vpaddw	4320(%rbx,%rdx), %ymm4, %ymm5
	vpsubw	96(%rax,%rcx,2), %ymm5, %ymm0
	vmovdqu	%ymm0, 4320(%rsi,%rdx)
	vmovdqu	128(%rax,%r8,2), %ymm1
	vpaddw	128(%rax,%r9,2), %ymm1, %ymm2
	vpaddw	4352(%rbx,%rdx), %ymm2, %ymm3
	vpsubw	128(%rax,%rcx,2), %ymm3, %ymm4
	vmovdqu	%ymm4, 4352(%rsi,%rdx)
	vmovdqu	160(%rax,%r8,2), %ymm5
	vpaddw	160(%rax,%r9,2), %ymm5, %ymm0
	vpaddw	4384(%rbx,%rdx), %ymm0, %ymm1
	vpsubw	160(%rax,%rcx,2), %ymm1, %ymm2
	vmovdqu	%ymm2, 4384(%rsi,%rdx)
	vmovdqu	192(%rax,%r8,2), %ymm3
	vpaddw	192(%rax,%r9,2), %ymm3, %ymm4
	vpaddw	4416(%rbx,%rdx), %ymm4, %ymm5
	vpsubw	192(%rax,%rcx,2), %ymm5, %ymm0
	vmovdqu	%ymm0, 4416(%rsi,%rdx)
	vmovdqu	224(%rax,%r8,2), %ymm1
	movq	%r11, %r8
	vpaddw	224(%rax,%r9,2), %ymm1, %ymm2
	vpaddw	4448(%rbx,%rdx), %ymm2, %ymm3
	salq	$5, %r8
	vpsubw	224(%rax,%rcx,2), %ymm3, %ymm4
	leal	0(,%r13,8), %r9d
	vmovdqu	%ymm4, 4448(%rsi,%rdx)
	leal	0(,%rbp,8), %edx
	leal	0(,%r12,8), %ebp
	vmovdqu	(%rdi,%r9,4), %ymm5
	vpaddd	(%rdi,%rdx,4), %ymm5, %ymm0
	vpaddd	4736(%rbx,%r8), %ymm0, %ymm1
	vpsubd	(%rdi,%rbp,4), %ymm1, %ymm2
	vmovdqu	%ymm2, 4736(%rsi,%r8)
	jmp	.L511
	.p2align 4,,10
	.p2align 3
.L513:
	vmovdqu	256(%rdi,%r8,2), %ymm3
	movq	%r11, %r14
	vpsubw	256(%rdi,%rcx,2), %ymm3, %ymm4
	leal	0(,%r13,8), %r10d
	vpaddw	4224(%rbx,%rdx), %ymm4, %ymm5
	salq	$5, %r14
	vmovdqu	%ymm5, 4224(%rsi,%rdx)
	vmovdqu	32(%rax,%r8,2), %ymm0
	vpsubw	32(%rax,%rcx,2), %ymm0, %ymm1
	vpaddw	4256(%rbx,%rdx), %ymm1, %ymm2
	vmovdqu	%ymm2, 4256(%rsi,%rdx)
	vmovdqu	64(%rax,%r8,2), %ymm3
	vpsubw	64(%rax,%rcx,2), %ymm3, %ymm4
	vpaddw	4288(%rbx,%rdx), %ymm4, %ymm5
	vmovdqu	%ymm5, 4288(%rsi,%rdx)
	vmovdqu	96(%rax,%r8,2), %ymm0
	vpsubw	96(%rax,%rcx,2), %ymm0, %ymm1
	vpaddw	4320(%rbx,%rdx), %ymm1, %ymm2
	vmovdqu	%ymm2, 4320(%rsi,%rdx)
	vmovdqu	128(%rax,%r8,2), %ymm3
	vpsubw	128(%rax,%rcx,2), %ymm3, %ymm4
	vpaddw	4352(%rbx,%rdx), %ymm4, %ymm5
	vmovdqu	%ymm5, 4352(%rsi,%rdx)
	vmovdqu	160(%rax,%r8,2), %ymm0
	vpsubw	160(%rax,%rcx,2), %ymm0, %ymm1
	vpaddw	4384(%rbx,%rdx), %ymm1, %ymm2
	vmovdqu	%ymm2, 4384(%rsi,%rdx)
	vmovdqu	192(%rax,%r8,2), %ymm3
	vpsubw	192(%rax,%rcx,2), %ymm3, %ymm4
	vpaddw	4416(%rbx,%rdx), %ymm4, %ymm5
	vmovdqu	%ymm5, 4416(%rsi,%rdx)
	vmovdqu	224(%rax,%r8,2), %ymm0
	vpsubw	224(%rax,%rcx,2), %ymm0, %ymm1
	leal	0(,%r12,8), %eax
	vpaddw	4448(%rbx,%rdx), %ymm1, %ymm2
	vmovdqu	%ymm2, 4448(%rsi,%rdx)
	vmovdqu	5767488(%rdi,%r10,4), %ymm3
	vpsubd	5767488(%rdi,%rax,4), %ymm3, %ymm4
	vpaddd	4736(%rbx,%r14), %ymm4, %ymm5
	vmovdqu	%ymm5, 4736(%rsi,%r14)
	jmp	.L511
	.seh_endproc
	.p2align 4
	.def	_ZNSt17_Function_handlerIFSt8optionalINSt7__cxx1112basic_stringIcSt11char_traitsIcESaIcEEEERKN9Stockfish6OptionEEZNS8_6EngineC4ES7_EUlSB_E_E10_M_managerERSt9_Any_dataRKSG_St18_Manager_operation;	.scl	3;	.type	32;	.endef
	.seh_proc	_ZNSt17_Function_handlerIFSt8optionalINSt7__cxx1112basic_stringIcSt11char_traitsIcESaIcEEEERKN9Stockfish6OptionEEZNS8_6EngineC4ES7_EUlSB_E_E10_M_managerERSt9_Any_dataRKSG_St18_Manager_operation
_ZNSt17_Function_handlerIFSt8optionalINSt7__cxx1112basic_stringIcSt11char_traitsIcESaIcEEEERKN9Stockfish6OptionEEZNS8_6EngineC4ES7_EUlSB_E_E10_M_managerERSt9_Any_dataRKSG_St18_Manager_operation:
	.seh_endprologue
	testl	%r8d, %r8d
	je	.L516
	cmpl	$1, %r8d
	je	.L517
	xorl	%eax, %eax
	ret
	.p2align 4,,10
	.p2align 3
.L517:
	xorl	%eax, %eax
	movq	%rdx, (%rcx)
	ret
	.p2align 4,,10
	.p2align 3
.L516:
	leaq	_ZTIZN9Stockfish6EngineC4ESt8optionalINSt7__cxx1112basic_stringIcSt11char_traitsIcESaIcEEEEEUlRKNS_6OptionEE_(%rip), %rax
	movq	%rax, (%rcx)
	xorl	%eax, %eax
	ret
	.seh_endproc
	.p2align 4
	.def	_ZNSt17_Function_handlerIFSt8optionalINSt7__cxx1112basic_stringIcSt11char_traitsIcESaIcEEEERKN9Stockfish6OptionEEZNS8_6EngineC4ES7_EUlSB_E4_E10_M_managerERSt9_Any_dataRKSG_St18_Manager_operation;	.scl	3;	.type	32;	.endef
	.seh_proc	_ZNSt17_Function_handlerIFSt8optionalINSt7__cxx1112basic_stringIcSt11char_traitsIcESaIcEEEERKN9Stockfish6OptionEEZNS8_6EngineC4ES7_EUlSB_E4_E10_M_managerERSt9_Any_dataRKSG_St18_Manager_operation
_ZNSt17_Function_handlerIFSt8optionalINSt7__cxx1112basic_stringIcSt11char_traitsIcESaIcEEEERKN9Stockfish6OptionEEZNS8_6EngineC4ES7_EUlSB_E4_E10_M_managerERSt9_Any_dataRKSG_St18_Manager_operation:
	.seh_endprologue
	testl	%r8d, %r8d
	je	.L520
	cmpl	$1, %r8d
	je	.L521
	xorl	%eax, %eax
	ret
	.p2align 4,,10
	.p2align 3
.L521:
	xorl	%eax, %eax
	movq	%rdx, (%rcx)
	ret
	.p2align 4,,10
	.p2align 3
.L520:
	leaq	_ZTIZN9Stockfish6EngineC4ESt8optionalINSt7__cxx1112basic_stringIcSt11char_traitsIcESaIcEEEEEUlRKNS_6OptionEE4_(%rip), %rax
	movq	%rax, (%rcx)
	xorl	%eax, %eax
	ret
	.seh_endproc
	.p2align 4
	.def	_ZNSt17_Function_handlerIFSt8optionalINSt7__cxx1112basic_stringIcSt11char_traitsIcESaIcEEEERKN9Stockfish6OptionEEZNS8_6EngineC4ES7_EUlSB_E0_E10_M_managerERSt9_Any_dataRKSG_St18_Manager_operation;	.scl	3;	.type	32;	.endef
	.seh_proc	_ZNSt17_Function_handlerIFSt8optionalINSt7__cxx1112basic_stringIcSt11char_traitsIcESaIcEEEERKN9Stockfish6OptionEEZNS8_6EngineC4ES7_EUlSB_E0_E10_M_managerERSt9_Any_dataRKSG_St18_Manager_operation
_ZNSt17_Function_handlerIFSt8optionalINSt7__cxx1112basic_stringIcSt11char_traitsIcESaIcEEEERKN9Stockfish6OptionEEZNS8_6EngineC4ES7_EUlSB_E0_E10_M_managerERSt9_Any_dataRKSG_St18_Manager_operation:
	.seh_endprologue
	testl	%r8d, %r8d
	je	.L524
	cmpl	$1, %r8d
	jne	.L529
	movq	%rdx, (%rcx)
.L527:
	xorl	%eax, %eax
	ret
	.p2align 4,,10
	.p2align 3
.L529:
	cmpl	$2, %r8d
	jne	.L527
	movq	(%rdx), %rdx
	movq	%rdx, (%rcx)
	jmp	.L527
	.p2align 4,,10
	.p2align 3
.L524:
	leaq	_ZTIZN9Stockfish6EngineC4ESt8optionalINSt7__cxx1112basic_stringIcSt11char_traitsIcESaIcEEEEEUlRKNS_6OptionEE0_(%rip), %rax
	movq	%rax, (%rcx)
	xorl	%eax, %eax
	ret
	.seh_endproc
	.p2align 4
	.def	_ZNSt17_Function_handlerIFSt8optionalINSt7__cxx1112basic_stringIcSt11char_traitsIcESaIcEEEERKN9Stockfish6OptionEEZNS8_6EngineC4ES7_EUlSB_E1_E10_M_managerERSt9_Any_dataRKSG_St18_Manager_operation;	.scl	3;	.type	32;	.endef
	.seh_proc	_ZNSt17_Function_handlerIFSt8optionalINSt7__cxx1112basic_stringIcSt11char_traitsIcESaIcEEEERKN9Stockfish6OptionEEZNS8_6EngineC4ES7_EUlSB_E1_E10_M_managerERSt9_Any_dataRKSG_St18_Manager_operation
_ZNSt17_Function_handlerIFSt8optionalINSt7__cxx1112basic_stringIcSt11char_traitsIcESaIcEEEERKN9Stockfish6OptionEEZNS8_6EngineC4ES7_EUlSB_E1_E10_M_managerERSt9_Any_dataRKSG_St18_Manager_operation:
	.seh_endprologue
	testl	%r8d, %r8d
	je	.L531
	cmpl	$1, %r8d
	jne	.L536
	movq	%rdx, (%rcx)
.L534:
	xorl	%eax, %eax
	ret
	.p2align 4,,10
	.p2align 3
.L536:
	cmpl	$2, %r8d
	jne	.L534
	movq	(%rdx), %rdx
	movq	%rdx, (%rcx)
	jmp	.L534
	.p2align 4,,10
	.p2align 3
.L531:
	leaq	_ZTIZN9Stockfish6EngineC4ESt8optionalINSt7__cxx1112basic_stringIcSt11char_traitsIcESaIcEEEEEUlRKNS_6OptionEE1_(%rip), %rax
	movq	%rax, (%rcx)
	xorl	%eax, %eax
	ret
	.seh_endproc
	.p2align 4
	.def	_ZNSt17_Function_handlerIFSt8optionalINSt7__cxx1112basic_stringIcSt11char_traitsIcESaIcEEEERKN9Stockfish6OptionEEZNS8_6EngineC4ES7_EUlSB_E2_E10_M_managerERSt9_Any_dataRKSG_St18_Manager_operation;	.scl	3;	.type	32;	.endef
	.seh_proc	_ZNSt17_Function_handlerIFSt8optionalINSt7__cxx1112basic_stringIcSt11char_traitsIcESaIcEEEERKN9Stockfish6OptionEEZNS8_6EngineC4ES7_EUlSB_E2_E10_M_managerERSt9_Any_dataRKSG_St18_Manager_operation
_ZNSt17_Function_handlerIFSt8optionalINSt7__cxx1112basic_stringIcSt11char_traitsIcESaIcEEEERKN9Stockfish6OptionEEZNS8_6EngineC4ES7_EUlSB_E2_E10_M_managerERSt9_Any_dataRKSG_St18_Manager_operation:
	.seh_endprologue
	testl	%r8d, %r8d
	je	.L538
	cmpl	$1, %r8d
	jne	.L543
	movq	%rdx, (%rcx)
.L541:
	xorl	%eax, %eax
	ret
	.p2align 4,,10
	.p2align 3
.L543:
	cmpl	$2, %r8d
	jne	.L541
	movq	(%rdx), %rdx
	movq	%rdx, (%rcx)
	jmp	.L541
	.p2align 4,,10
	.p2align 3
.L538:
	leaq	_ZTIZN9Stockfish6EngineC4ESt8optionalINSt7__cxx1112basic_stringIcSt11char_traitsIcESaIcEEEEEUlRKNS_6OptionEE2_(%rip), %rax
	movq	%rax, (%rcx)
	xorl	%eax, %eax
	ret
	.seh_endproc
	.p2align 4
	.def	_ZNSt17_Function_handlerIFSt8optionalINSt7__cxx1112basic_stringIcSt11char_traitsIcESaIcEEEERKN9Stockfish6OptionEEZNS8_6EngineC4ES7_EUlSB_E3_E10_M_managerERSt9_Any_dataRKSG_St18_Manager_operation;	.scl	3;	.type	32;	.endef
	.seh_proc	_ZNSt17_Function_handlerIFSt8optionalINSt7__cxx1112basic_stringIcSt11char_traitsIcESaIcEEEERKN9Stockfish6OptionEEZNS8_6EngineC4ES7_EUlSB_E3_E10_M_managerERSt9_Any_dataRKSG_St18_Manager_operation
_ZNSt17_Function_handlerIFSt8optionalINSt7__cxx1112basic_stringIcSt11char_traitsIcESaIcEEEERKN9Stockfish6OptionEEZNS8_6EngineC4ES7_EUlSB_E3_E10_M_managerERSt9_Any_dataRKSG_St18_Manager_operation:
	.seh_endprologue
	testl	%r8d, %r8d
	je	.L545
	cmpl	$1, %r8d
	jne	.L550
	movq	%rdx, (%rcx)
.L548:
	xorl	%eax, %eax
	ret
	.p2align 4,,10
	.p2align 3
.L550:
	cmpl	$2, %r8d
	jne	.L548
	movq	(%rdx), %rdx
	movq	%rdx, (%rcx)
	jmp	.L548
	.p2align 4,,10
	.p2align 3
.L545:
	leaq	_ZTIZN9Stockfish6EngineC4ESt8optionalINSt7__cxx1112basic_stringIcSt11char_traitsIcESaIcEEEEEUlRKNS_6OptionEE3_(%rip), %rax
	movq	%rax, (%rcx)
	xorl	%eax, %eax
	ret
	.seh_endproc
	.p2align 4
	.def	_ZNSt17_Function_handlerIFSt8optionalINSt7__cxx1112basic_stringIcSt11char_traitsIcESaIcEEEERKN9Stockfish6OptionEEZNS8_6EngineC4ES7_EUlSB_E5_E10_M_managerERSt9_Any_dataRKSG_St18_Manager_operation;	.scl	3;	.type	32;	.endef
	.seh_proc	_ZNSt17_Function_handlerIFSt8optionalINSt7__cxx1112basic_stringIcSt11char_traitsIcESaIcEEEERKN9Stockfish6OptionEEZNS8_6EngineC4ES7_EUlSB_E5_E10_M_managerERSt9_Any_dataRKSG_St18_Manager_operation
_ZNSt17_Function_handlerIFSt8optionalINSt7__cxx1112basic_stringIcSt11char_traitsIcESaIcEEEERKN9Stockfish6OptionEEZNS8_6EngineC4ES7_EUlSB_E5_E10_M_managerERSt9_Any_dataRKSG_St18_Manager_operation:
	.seh_endprologue
	testl	%r8d, %r8d
	je	.L552
	cmpl	$1, %r8d
	jne	.L557
	movq	%rdx, (%rcx)
.L555:
	xorl	%eax, %eax
	ret
	.p2align 4,,10
	.p2align 3
.L557:
	cmpl	$2, %r8d
	jne	.L555
	movq	(%rdx), %rdx
	movq	%rdx, (%rcx)
	jmp	.L555
	.p2align 4,,10
	.p2align 3
.L552:
	leaq	_ZTIZN9Stockfish6EngineC4ESt8optionalINSt7__cxx1112basic_stringIcSt11char_traitsIcESaIcEEEEEUlRKNS_6OptionEE5_(%rip), %rax
	movq	%rax, (%rcx)
	xorl	%eax, %eax
	ret
	.seh_endproc
	.p2align 4
	.def	_ZNSt17_Function_handlerIFSt8optionalINSt7__cxx1112basic_stringIcSt11char_traitsIcESaIcEEEERKN9Stockfish6OptionEEZNS8_6EngineC4ES7_EUlSB_E6_E10_M_managerERSt9_Any_dataRKSG_St18_Manager_operation;	.scl	3;	.type	32;	.endef
	.seh_proc	_ZNSt17_Function_handlerIFSt8optionalINSt7__cxx1112basic_stringIcSt11char_traitsIcESaIcEEEERKN9Stockfish6OptionEEZNS8_6EngineC4ES7_EUlSB_E6_E10_M_managerERSt9_Any_dataRKSG_St18_Manager_operation
_ZNSt17_Function_handlerIFSt8optionalINSt7__cxx1112basic_stringIcSt11char_traitsIcESaIcEEEERKN9Stockfish6OptionEEZNS8_6EngineC4ES7_EUlSB_E6_E10_M_managerERSt9_Any_dataRKSG_St18_Manager_operation:
	.seh_endprologue
	testl	%r8d, %r8d
	je	.L559
	cmpl	$1, %r8d
	jne	.L564
	movq	%rdx, (%rcx)
.L562:
	xorl	%eax, %eax
	ret
	.p2align 4,,10
	.p2align 3
.L564:
	cmpl	$2, %r8d
	jne	.L562
	movq	(%rdx), %rdx
	movq	%rdx, (%rcx)
	jmp	.L562
	.p2align 4,,10
	.p2align 3
.L559:
	leaq	_ZTIZN9Stockfish6EngineC4ESt8optionalINSt7__cxx1112basic_stringIcSt11char_traitsIcESaIcEEEEEUlRKNS_6OptionEE6_(%rip), %rax
	movq	%rax, (%rcx)
	xorl	%eax, %eax
	ret
	.seh_endproc
	.align 2
	.p2align 4
	.def	_ZNSt8_Rb_treeIyySt9_IdentityIyESt4lessIyESaIyEE8_M_eraseEPSt13_Rb_tree_nodeIyE.isra.0;	.scl	3;	.type	32;	.endef
	.seh_proc	_ZNSt8_Rb_treeIyySt9_IdentityIyESt4lessIyESaIyEE8_M_eraseEPSt13_Rb_tree_nodeIyE.isra.0
_ZNSt8_Rb_treeIyySt9_IdentityIyESt4lessIyESaIyEE8_M_eraseEPSt13_Rb_tree_nodeIyE.isra.0:
	pushq	%r15
	.seh_pushreg	%r15
	pushq	%r14
	.seh_pushreg	%r14
	pushq	%r13
	.seh_pushreg	%r13
	pushq	%r12
	.seh_pushreg	%r12
	pushq	%rbp
	.seh_pushreg	%rbp
	pushq	%rdi
	.seh_pushreg	%rdi
	pushq	%rsi
	.seh_pushreg	%rsi
	pushq	%rbx
	.seh_pushreg	%rbx
	subq	$40, %rsp
	.seh_stackalloc	40
	.seh_endprologue
	movq	%rcx, 112(%rsp)
	testq	%rcx, %rcx
	je	.L620
.L583:
	movq	112(%rsp), %rax
	movq	24(%rax), %r13
	testq	%r13, %r13
	je	.L567
.L582:
	movq	24(%r13), %r14
	testq	%r14, %r14
	je	.L568
.L581:
	movq	24(%r14), %r15
	testq	%r15, %r15
	je	.L569
.L580:
	movq	24(%r15), %rbx
	testq	%rbx, %rbx
	je	.L570
.L579:
	movq	24(%rbx), %rdi
	testq	%rdi, %rdi
	je	.L571
.L578:
	movq	24(%rdi), %rbp
	testq	%rbp, %rbp
	je	.L572
.L577:
	movq	24(%rbp), %rsi
	testq	%rsi, %rsi
	je	.L573
.L576:
	movq	24(%rsi), %r12
	testq	%r12, %r12
	je	.L574
.L575:
	movq	24(%r12), %rcx
	call	_ZNSt8_Rb_treeIyySt9_IdentityIyESt4lessIyESaIyEE8_M_eraseEPSt13_Rb_tree_nodeIyE.isra.0
	movq	%r12, %rcx
	movq	16(%r12), %r12
	movl	$40, %edx
	call	_ZdlPvy
	testq	%r12, %r12
	jne	.L575
.L574:
	movq	16(%rsi), %r12
	movl	$40, %edx
	movq	%rsi, %rcx
	call	_ZdlPvy
	testq	%r12, %r12
	je	.L573
	movq	%r12, %rsi
	jmp	.L576
.L571:
	movq	16(%rbx), %rdi
	movl	$40, %edx
	movq	%rbx, %rcx
	call	_ZdlPvy
	testq	%rdi, %rdi
	je	.L570
	movq	%rdi, %rbx
	jmp	.L579
	.p2align 4,,10
	.p2align 3
.L572:
	movq	16(%rdi), %rbp
	movl	$40, %edx
	movq	%rdi, %rcx
	call	_ZdlPvy
	testq	%rbp, %rbp
	je	.L571
	movq	%rbp, %rdi
	jmp	.L578
.L570:
	movq	16(%r15), %rbx
	movl	$40, %edx
	movq	%r15, %rcx
	call	_ZdlPvy
	testq	%rbx, %rbx
	je	.L569
	movq	%rbx, %r15
	jmp	.L580
	.p2align 4,,10
	.p2align 3
.L573:
	movq	16(%rbp), %rsi
	movl	$40, %edx
	movq	%rbp, %rcx
	call	_ZdlPvy
	testq	%rsi, %rsi
	je	.L572
	movq	%rsi, %rbp
	jmp	.L577
.L569:
	movq	16(%r14), %r15
	movl	$40, %edx
	movq	%r14, %rcx
	call	_ZdlPvy
	testq	%r15, %r15
	je	.L568
	movq	%r15, %r14
	jmp	.L581
.L568:
	movq	16(%r13), %r14
	movl	$40, %edx
	movq	%r13, %rcx
	call	_ZdlPvy
	testq	%r14, %r14
	je	.L567
	movq	%r14, %r13
	jmp	.L582
.L567:
	movq	112(%rsp), %rcx
	movl	$40, %edx
	movq	16(%rcx), %r13
	call	_ZdlPvy
	testq	%r13, %r13
	je	.L620
	movq	%r13, 112(%rsp)
	jmp	.L583
.L620:
	addq	$40, %rsp
	popq	%rbx
	popq	%rsi
	popq	%rdi
	popq	%rbp
	popq	%r12
	popq	%r13
	popq	%r14
	popq	%r15
	ret
	.seh_endproc
	.section	.text.startup,"x"
	.align 2
	.p2align 4
	.def	_ZNSt8optionalISt3setIySt4lessIyESaIyEEEaSIS4_EENSt9enable_ifIX7__and_vIJSt6__not_ISt7is_sameIS5_NSt9remove_cvINSt16remove_referenceIT_E4typeEE4typeEEES8_ISt6__and_IJSt9is_scalarIS4_ES9_IS4_NSt5decayISC_E4typeEEEEESt16is_constructibleIS4_JSC_EESt13is_assignableIRS4_SC_EEEERS5_E4typeEOSC_.isra.0;	.scl	3;	.type	32;	.endef
	.seh_proc	_ZNSt8optionalISt3setIySt4lessIyESaIyEEEaSIS4_EENSt9enable_ifIX7__and_vIJSt6__not_ISt7is_sameIS5_NSt9remove_cvINSt16remove_referenceIT_E4typeEE4typeEEES8_ISt6__and_IJSt9is_scalarIS4_ES9_IS4_NSt5decayISC_E4typeEEEEESt16is_constructibleIS4_JSC_EESt13is_assignableIRS4_SC_EEEERS5_E4typeEOSC_.isra.0
_ZNSt8optionalISt3setIySt4lessIyESaIyEEEaSIS4_EENSt9enable_ifIX7__and_vIJSt6__not_ISt7is_sameIS5_NSt9remove_cvINSt16remove_referenceIT_E4typeEE4typeEEES8_ISt6__and_IJSt9is_scalarIS4_ES9_IS4_NSt5decayISC_E4typeEEEEESt16is_constructibleIS4_JSC_EESt13is_assignableIRS4_SC_EEEERS5_E4typeEOSC_.isra.0:
	pushq	%rdi
	.seh_pushreg	%rdi
	pushq	%rsi
	.seh_pushreg	%rsi
	pushq	%rbx
	.seh_pushreg	%rbx
	subq	$32, %rsp
	.seh_stackalloc	32
	.seh_endprologue
	movq	%rcx, %rbx
	movq	%rdx, %rsi
	cmpb	$0, 48(%rcx)
	jne	.L636
	movq	16(%rdx), %rax
	testq	%rax, %rax
	je	.L626
	movl	8(%rdx), %r9d
	movq	32(%rdx), %r10
	vmovq	%rax, %xmm1
	xorl	%edi, %edi
	vpinsrq	$1, 24(%rdx), %xmm1, %xmm0
	leaq	8(%rcx), %r11
	movl	%r9d, 8(%rcx)
	movq	%r10, 32(%rcx)
	vmovdqu	%xmm0, 16(%rcx)
	movq	%r11, 8(%rax)
	movq	40(%rdx), %rax
	xorl	%edx, %edx
	movq	%rdx, 16(%rsi)
	movq	%rax, 40(%rcx)
	leaq	8(%rsi), %rcx
	movq	%rcx, 24(%rsi)
	movq	%rcx, 32(%rsi)
	movq	%rdi, 40(%rsi)
.L627:
	movb	$1, 48(%rbx)
.L635:
	addq	$32, %rsp
	popq	%rbx
	popq	%rsi
	popq	%rdi
	ret
.L626:
	xorl	%edx, %edx
	leaq	8(%rbx), %rdi
	xorl	%r8d, %r8d
	movl	%edx, 8(%rcx)
	xorl	%ecx, %ecx
	movq	%rcx, 16(%rbx)
	movq	%rdi, 24(%rbx)
	movq	%rdi, 32(%rbx)
	movq	%r8, 40(%rbx)
	jmp	.L627
.L636:
	movq	16(%rcx), %rdi
	testq	%rdi, %rdi
	je	.L623
.L624:
	movq	24(%rdi), %rcx
	call	_ZNSt8_Rb_treeIyySt9_IdentityIyESt4lessIyESaIyEE8_M_eraseEPSt13_Rb_tree_nodeIyE.isra.0
	movq	%rdi, %rcx
	movq	16(%rdi), %rdi
	movl	$40, %edx
	call	_ZdlPvy
	testq	%rdi, %rdi
	jne	.L624
.L623:
	leaq	8(%rbx), %r9
	xorl	%r8d, %r8d
	xorl	%r10d, %r10d
	movq	%r8, 16(%rbx)
	movq	%r9, 24(%rbx)
	movq	%r9, 32(%rbx)
	movq	16(%rsi), %r11
	movq	%r10, 40(%rbx)
	testq	%r11, %r11
	je	.L635
	vmovq	%r11, %xmm2
	movl	8(%rsi), %eax
	movq	40(%rsi), %rcx
	leaq	8(%rsi), %rdi
	vpinsrq	$1, 24(%rsi), %xmm2, %xmm3
	xorl	%r8d, %r8d
	movl	%eax, 8(%rbx)
	vmovdqu	%xmm3, 16(%rbx)
	movq	32(%rsi), %rdx
	movq	%rdx, 32(%rbx)
	movq	%r9, 8(%r11)
	movq	%rcx, 40(%rbx)
	xorl	%ebx, %ebx
	movq	%rbx, 16(%rsi)
	movq	%rdi, 24(%rsi)
	movq	%rdi, 32(%rsi)
	movq	%r8, 40(%rsi)
	jmp	.L635
	.seh_endproc
	.text
	.p2align 4
	.def	__tcf_ZN9StockfishL26STARTUP_PROCESSOR_AFFINITYE.lto_priv.0;	.scl	3;	.type	32;	.endef
	.seh_proc	__tcf_ZN9StockfishL26STARTUP_PROCESSOR_AFFINITYE.lto_priv.0
__tcf_ZN9StockfishL26STARTUP_PROCESSOR_AFFINITYE.lto_priv.0:
	pushq	%rbx
	.seh_pushreg	%rbx
	subq	$32, %rsp
	.seh_stackalloc	32
	.seh_endprologue
	cmpb	$0, 104+_ZN9StockfishL26STARTUP_PROCESSOR_AFFINITYE.lto_priv.0(%rip)
	jne	.L651
.L638:
	cmpb	$0, 48+_ZN9StockfishL26STARTUP_PROCESSOR_AFFINITYE.lto_priv.0(%rip)
	jne	.L652
.L650:
	addq	$32, %rsp
	popq	%rbx
	ret
	.p2align 4,,10
	.p2align 3
.L651:
	movq	72+_ZN9StockfishL26STARTUP_PROCESSOR_AFFINITYE.lto_priv.0(%rip), %rbx
	testq	%rbx, %rbx
	je	.L638
.L639:
	movq	24(%rbx), %rcx
	call	_ZNSt8_Rb_treeIyySt9_IdentityIyESt4lessIyESaIyEE8_M_eraseEPSt13_Rb_tree_nodeIyE.isra.0
	movq	%rbx, %rcx
	movq	16(%rbx), %rbx
	movl	$40, %edx
	call	_ZdlPvy
	testq	%rbx, %rbx
	jne	.L639
	cmpb	$0, 48+_ZN9StockfishL26STARTUP_PROCESSOR_AFFINITYE.lto_priv.0(%rip)
	je	.L650
.L652:
	movq	16+_ZN9StockfishL26STARTUP_PROCESSOR_AFFINITYE.lto_priv.0(%rip), %rbx
	testq	%rbx, %rbx
	je	.L650
.L641:
	movq	24(%rbx), %rcx
	call	_ZNSt8_Rb_treeIyySt9_IdentityIyESt4lessIyESaIyEE8_M_eraseEPSt13_Rb_tree_nodeIyE.isra.0
	movq	%rbx, %rcx
	movq	16(%rbx), %rbx
	movl	$40, %edx
	call	_ZdlPvy
	testq	%rbx, %rbx
	jne	.L641
	addq	$32, %rsp
	popq	%rbx
	ret
	.seh_endproc
	.align 2
	.p2align 4
	.def	_ZNSt6vectorISt3setIySt4lessIyESaIyEESaIS4_EED1Ev;	.scl	3;	.type	32;	.endef
	.seh_proc	_ZNSt6vectorISt3setIySt4lessIyESaIyEESaIS4_EED1Ev
_ZNSt6vectorISt3setIySt4lessIyESaIyEESaIS4_EED1Ev:
	pushq	%rbp
	.seh_pushreg	%rbp
	pushq	%rdi
	.seh_pushreg	%rdi
	pushq	%rsi
	.seh_pushreg	%rsi
	pushq	%rbx
	.seh_pushreg	%rbx
	subq	$40, %rsp
	.seh_stackalloc	40
	.seh_endprologue
	movq	8(%rcx), %rdi
	movq	(%rcx), %rsi
	movq	%rcx, %rbp
	cmpq	%rsi, %rdi
	je	.L654
	.p2align 4
	.p2align 3
.L656:
	movq	16(%rsi), %rbx
	testq	%rbx, %rbx
	je	.L658
.L655:
	movq	24(%rbx), %rcx
	call	_ZNSt8_Rb_treeIyySt9_IdentityIyESt4lessIyESaIyEE8_M_eraseEPSt13_Rb_tree_nodeIyE.isra.0
	movq	%rbx, %rcx
	movq	16(%rbx), %rbx
	movl	$40, %edx
	call	_ZdlPvy
	testq	%rbx, %rbx
	jne	.L655
.L658:
	addq	$48, %rsi
	cmpq	%rsi, %rdi
	jne	.L656
	movq	0(%rbp), %rsi
.L654:
	testq	%rsi, %rsi
	je	.L664
	movq	16(%rbp), %rdx
	movq	%rsi, %rcx
	subq	%rsi, %rdx
	addq	$40, %rsp
	popq	%rbx
	popq	%rsi
	popq	%rdi
	popq	%rbp
	jmp	_ZdlPvy
	.p2align 4,,10
	.p2align 3
.L664:
	addq	$40, %rsp
	popq	%rbx
	popq	%rsi
	popq	%rdi
	popq	%rbp
	ret
	.seh_endproc
	.align 2
	.p2align 4
	.def	_ZNSt8_Rb_treeIySt4pairIKyyESt10_Select1stIS2_ESt4lessIyESaIS2_EE8_M_eraseEPSt13_Rb_tree_nodeIS2_E.isra.0;	.scl	3;	.type	32;	.endef
	.seh_proc	_ZNSt8_Rb_treeIySt4pairIKyyESt10_Select1stIS2_ESt4lessIyESaIS2_EE8_M_eraseEPSt13_Rb_tree_nodeIS2_E.isra.0
_ZNSt8_Rb_treeIySt4pairIKyyESt10_Select1stIS2_ESt4lessIyESaIS2_EE8_M_eraseEPSt13_Rb_tree_nodeIS2_E.isra.0:
	pushq	%r15
	.seh_pushreg	%r15
	pushq	%r14
	.seh_pushreg	%r14
	pushq	%r13
	.seh_pushreg	%r13
	pushq	%r12
	.seh_pushreg	%r12
	pushq	%rbp
	.seh_pushreg	%rbp
	pushq	%rdi
	.seh_pushreg	%rdi
	pushq	%rsi
	.seh_pushreg	%rsi
	pushq	%rbx
	.seh_pushreg	%rbx
	subq	$40, %rsp
	.seh_stackalloc	40
	.seh_endprologue
	movq	%rcx, 112(%rsp)
	testq	%rcx, %rcx
	je	.L720
.L683:
	movq	112(%rsp), %rax
	movq	24(%rax), %r13
	testq	%r13, %r13
	je	.L667
.L682:
	movq	24(%r13), %r14
	testq	%r14, %r14
	je	.L668
.L681:
	movq	24(%r14), %r15
	testq	%r15, %r15
	je	.L669
.L680:
	movq	24(%r15), %rbx
	testq	%rbx, %rbx
	je	.L670
.L679:
	movq	24(%rbx), %rdi
	testq	%rdi, %rdi
	je	.L671
.L678:
	movq	24(%rdi), %rbp
	testq	%rbp, %rbp
	je	.L672
.L677:
	movq	24(%rbp), %rsi
	testq	%rsi, %rsi
	je	.L673
.L676:
	movq	24(%rsi), %r12
	testq	%r12, %r12
	je	.L674
.L675:
	movq	24(%r12), %rcx
	call	_ZNSt8_Rb_treeIySt4pairIKyyESt10_Select1stIS2_ESt4lessIyESaIS2_EE8_M_eraseEPSt13_Rb_tree_nodeIS2_E.isra.0
	movq	%r12, %rcx
	movq	16(%r12), %r12
	movl	$48, %edx
	call	_ZdlPvy
	testq	%r12, %r12
	jne	.L675
.L674:
	movq	16(%rsi), %r12
	movl	$48, %edx
	movq	%rsi, %rcx
	call	_ZdlPvy
	testq	%r12, %r12
	je	.L673
	movq	%r12, %rsi
	jmp	.L676
.L671:
	movq	16(%rbx), %rdi
	movl	$48, %edx
	movq	%rbx, %rcx
	call	_ZdlPvy
	testq	%rdi, %rdi
	je	.L670
	movq	%rdi, %rbx
	jmp	.L679
	.p2align 4,,10
	.p2align 3
.L672:
	movq	16(%rdi), %rbp
	movl	$48, %edx
	movq	%rdi, %rcx
	call	_ZdlPvy
	testq	%rbp, %rbp
	je	.L671
	movq	%rbp, %rdi
	jmp	.L678
.L670:
	movq	16(%r15), %rbx
	movl	$48, %edx
	movq	%r15, %rcx
	call	_ZdlPvy
	testq	%rbx, %rbx
	je	.L669
	movq	%rbx, %r15
	jmp	.L680
	.p2align 4,,10
	.p2align 3
.L673:
	movq	16(%rbp), %rsi
	movl	$48, %edx
	movq	%rbp, %rcx
	call	_ZdlPvy
	testq	%rsi, %rsi
	je	.L672
	movq	%rsi, %rbp
	jmp	.L677
.L669:
	movq	16(%r14), %r15
	movl	$48, %edx
	movq	%r14, %rcx
	call	_ZdlPvy
	testq	%r15, %r15
	je	.L668
	movq	%r15, %r14
	jmp	.L681
.L668:
	movq	16(%r13), %r14
	movl	$48, %edx
	movq	%r13, %rcx
	call	_ZdlPvy
	testq	%r14, %r14
	je	.L667
	movq	%r14, %r13
	jmp	.L682
.L667:
	movq	112(%rsp), %rcx
	movl	$48, %edx
	movq	16(%rcx), %r13
	call	_ZdlPvy
	testq	%r13, %r13
	je	.L720
	movq	%r13, 112(%rsp)
	jmp	.L683
.L720:
	addq	$40, %rsp
	popq	%rbx
	popq	%rsi
	popq	%rdi
	popq	%rbp
	popq	%r12
	popq	%r13
	popq	%r14
	popq	%r15
	ret
	.seh_endproc
	.p2align 4
	.def	__tcf_ZN9StockfishL26STARTUP_PROCESSOR_AFFINITYE.lto_priv.1;	.scl	3;	.type	32;	.endef
	.seh_proc	__tcf_ZN9StockfishL26STARTUP_PROCESSOR_AFFINITYE.lto_priv.1
__tcf_ZN9StockfishL26STARTUP_PROCESSOR_AFFINITYE.lto_priv.1:
	pushq	%rbx
	.seh_pushreg	%rbx
	subq	$32, %rsp
	.seh_stackalloc	32
	.seh_endprologue
	cmpb	$0, 104+_ZN9StockfishL26STARTUP_PROCESSOR_AFFINITYE.lto_priv.1(%rip)
	jne	.L735
.L722:
	cmpb	$0, 48+_ZN9StockfishL26STARTUP_PROCESSOR_AFFINITYE.lto_priv.1(%rip)
	jne	.L736
.L734:
	addq	$32, %rsp
	popq	%rbx
	ret
	.p2align 4,,10
	.p2align 3
.L735:
	movq	72+_ZN9StockfishL26STARTUP_PROCESSOR_AFFINITYE.lto_priv.1(%rip), %rbx
	testq	%rbx, %rbx
	je	.L722
.L723:
	movq	24(%rbx), %rcx
	call	_ZNSt8_Rb_treeIyySt9_IdentityIyESt4lessIyESaIyEE8_M_eraseEPSt13_Rb_tree_nodeIyE.isra.0
	movq	%rbx, %rcx
	movq	16(%rbx), %rbx
	movl	$40, %edx
	call	_ZdlPvy
	testq	%rbx, %rbx
	jne	.L723
	cmpb	$0, 48+_ZN9StockfishL26STARTUP_PROCESSOR_AFFINITYE.lto_priv.1(%rip)
	je	.L734
.L736:
	movq	16+_ZN9StockfishL26STARTUP_PROCESSOR_AFFINITYE.lto_priv.1(%rip), %rbx
	testq	%rbx, %rbx
	je	.L734
.L725:
	movq	24(%rbx), %rcx
	call	_ZNSt8_Rb_treeIyySt9_IdentityIyESt4lessIyESaIyEE8_M_eraseEPSt13_Rb_tree_nodeIyE.isra.0
	movq	%rbx, %rcx
	movq	16(%rbx), %rbx
	movl	$40, %edx
	call	_ZdlPvy
	testq	%rbx, %rbx
	jne	.L725
	addq	$32, %rsp
	popq	%rbx
	ret
	.seh_endproc
	.p2align 4
	.def	__tcf_ZZN9Stockfish4Tune8instanceEvE1t;	.scl	3;	.type	32;	.endef
	.seh_proc	__tcf_ZZN9Stockfish4Tune8instanceEvE1t
__tcf_ZZN9Stockfish4Tune8instanceEvE1t:
	pushq	%rsi
	.seh_pushreg	%rsi
	pushq	%rbx
	.seh_pushreg	%rbx
	subq	$40, %rsp
	.seh_stackalloc	40
	.seh_endprologue
	movq	8+_ZZN9Stockfish4Tune8instanceEvE1t(%rip), %rsi
	movq	_ZZN9Stockfish4Tune8instanceEvE1t(%rip), %rbx
	cmpq	%rbx, %rsi
	je	.L738
	.p2align 4
	.p2align 3
.L742:
	movq	(%rbx), %rcx
	testq	%rcx, %rcx
	je	.L739
	movq	(%rcx), %rax
	addq	$8, %rbx
	call	*8(%rax)
	cmpq	%rbx, %rsi
	jne	.L742
.L741:
	movq	_ZZN9Stockfish4Tune8instanceEvE1t(%rip), %rbx
.L738:
	testq	%rbx, %rbx
	je	.L744
	movq	16+_ZZN9Stockfish4Tune8instanceEvE1t(%rip), %rdx
	movq	%rbx, %rcx
	subq	%rbx, %rdx
	addq	$40, %rsp
	popq	%rbx
	popq	%rsi
	jmp	_ZdlPvy
	.p2align 4,,10
	.p2align 3
.L739:
	addq	$8, %rbx
	cmpq	%rbx, %rsi
	jne	.L742
	jmp	.L741
	.p2align 4,,10
	.p2align 3
.L744:
	addq	$40, %rsp
	popq	%rbx
	popq	%rsi
	ret
	.seh_endproc
	.align 2
	.p2align 4
	.def	_ZNSt10unique_ptrISt5dequeIN9Stockfish9StateInfoESaIS2_EESt14default_deleteIS4_EED1Ev;	.scl	3;	.type	32;	.endef
	.seh_proc	_ZNSt10unique_ptrISt5dequeIN9Stockfish9StateInfoESaIS2_EESt14default_deleteIS4_EED1Ev
_ZNSt10unique_ptrISt5dequeIN9Stockfish9StateInfoESaIS2_EESt14default_deleteIS4_EED1Ev:
	pushq	%rdi
	.seh_pushreg	%rdi
	pushq	%rsi
	.seh_pushreg	%rsi
	pushq	%rbx
	.seh_pushreg	%rbx
	subq	$48, %rsp
	.seh_stackalloc	48
	.seh_endprologue
	movq	(%rcx), %rsi
	testq	%rsi, %rsi
	je	.L787
	cmpq	$0, (%rsi)
	je	.L747
	movq	72(%rsi), %rax
	movq	40(%rsi), %rbx
	leaq	8(%rax), %rdi
	cmpq	%rdi, %rbx
	jnb	.L748
	movq	%rbx, %rdx
	movq	(%rbx), %rcx
	addq	$8, %rbx
	notq	%rdx
	addq	%rdi, %rdx
	shrq	$3, %rdx
	andl	$7, %edx
	movq	%rdx, 40(%rsp)
	movl	$384, %edx
	call	_ZdlPvy
	cmpq	%rdi, %rbx
	movq	40(%rsp), %rcx
	jnb	.L748
	testq	%rcx, %rcx
	je	.L749
	cmpq	$1, %rcx
	je	.L774
	cmpq	$2, %rcx
	je	.L775
	cmpq	$3, %rcx
	je	.L776
	cmpq	$4, %rcx
	je	.L777
	cmpq	$5, %rcx
	je	.L778
	cmpq	$6, %rcx
	jne	.L788
.L779:
	movq	(%rbx), %rcx
	movl	$384, %edx
	addq	$8, %rbx
	call	_ZdlPvy
.L778:
	movq	(%rbx), %rcx
	movl	$384, %edx
	addq	$8, %rbx
	call	_ZdlPvy
.L777:
	movq	(%rbx), %rcx
	movl	$384, %edx
	addq	$8, %rbx
	call	_ZdlPvy
.L776:
	movq	(%rbx), %rcx
	movl	$384, %edx
	addq	$8, %rbx
	call	_ZdlPvy
.L775:
	movq	(%rbx), %rcx
	movl	$384, %edx
	addq	$8, %rbx
	call	_ZdlPvy
.L774:
	movq	(%rbx), %rcx
	movl	$384, %edx
	addq	$8, %rbx
	call	_ZdlPvy
	cmpq	%rdi, %rbx
	jnb	.L748
.L749:
	movq	(%rbx), %rcx
	movl	$384, %edx
	addq	$64, %rbx
	call	_ZdlPvy
	movq	-56(%rbx), %rcx
	movl	$384, %edx
	call	_ZdlPvy
	movq	-48(%rbx), %rcx
	movl	$384, %edx
	call	_ZdlPvy
	movq	-40(%rbx), %rcx
	movl	$384, %edx
	call	_ZdlPvy
	movq	-32(%rbx), %rcx
	movl	$384, %edx
	call	_ZdlPvy
	movq	-24(%rbx), %rcx
	movl	$384, %edx
	call	_ZdlPvy
	movq	-16(%rbx), %rcx
	movl	$384, %edx
	call	_ZdlPvy
	movq	-8(%rbx), %rcx
	movl	$384, %edx
	call	_ZdlPvy
	cmpq	%rdi, %rbx
	jb	.L749
.L748:
	movq	8(%rsi), %r8
	movq	(%rsi), %rcx
	leaq	0(,%r8,8), %rdx
	call	_ZdlPvy
.L747:
	movl	$80, %edx
	movq	%rsi, %rcx
	addq	$48, %rsp
	popq	%rbx
	popq	%rsi
	popq	%rdi
	jmp	_ZdlPvy
.L787:
	addq	$48, %rsp
	popq	%rbx
	popq	%rsi
	popq	%rdi
	ret
.L788:
	movq	(%rbx), %rcx
	movl	$384, %edx
	addq	$8, %rbx
	call	_ZdlPvy
	jmp	.L779
	.seh_endproc
	.align 2
	.p2align 4
	.def	_ZNSt8_Rb_treeIPN9Stockfish18NumaReplicatedBaseES2_St9_IdentityIS2_ESt4lessIS2_ESaIS2_EE8_M_eraseEPSt13_Rb_tree_nodeIS2_E.isra.0;	.scl	3;	.type	32;	.endef
	.seh_proc	_ZNSt8_Rb_treeIPN9Stockfish18NumaReplicatedBaseES2_St9_IdentityIS2_ESt4lessIS2_ESaIS2_EE8_M_eraseEPSt13_Rb_tree_nodeIS2_E.isra.0
_ZNSt8_Rb_treeIPN9Stockfish18NumaReplicatedBaseES2_St9_IdentityIS2_ESt4lessIS2_ESaIS2_EE8_M_eraseEPSt13_Rb_tree_nodeIS2_E.isra.0:
	pushq	%r15
	.seh_pushreg	%r15
	pushq	%r14
	.seh_pushreg	%r14
	pushq	%r13
	.seh_pushreg	%r13
	pushq	%r12
	.seh_pushreg	%r12
	pushq	%rbp
	.seh_pushreg	%rbp
	pushq	%rdi
	.seh_pushreg	%rdi
	pushq	%rsi
	.seh_pushreg	%rsi
	pushq	%rbx
	.seh_pushreg	%rbx
	subq	$40, %rsp
	.seh_stackalloc	40
	.seh_endprologue
	movq	%rcx, 112(%rsp)
	testq	%rcx, %rcx
	je	.L844
.L807:
	movq	112(%rsp), %rax
	movq	24(%rax), %r13
	testq	%r13, %r13
	je	.L791
.L806:
	movq	24(%r13), %r14
	testq	%r14, %r14
	je	.L792
.L805:
	movq	24(%r14), %r15
	testq	%r15, %r15
	je	.L793
.L804:
	movq	24(%r15), %rbx
	testq	%rbx, %rbx
	je	.L794
.L803:
	movq	24(%rbx), %rdi
	testq	%rdi, %rdi
	je	.L795
.L802:
	movq	24(%rdi), %rbp
	testq	%rbp, %rbp
	je	.L796
.L801:
	movq	24(%rbp), %rsi
	testq	%rsi, %rsi
	je	.L797
.L800:
	movq	24(%rsi), %r12
	testq	%r12, %r12
	je	.L798
.L799:
	movq	24(%r12), %rcx
	call	_ZNSt8_Rb_treeIPN9Stockfish18NumaReplicatedBaseES2_St9_IdentityIS2_ESt4lessIS2_ESaIS2_EE8_M_eraseEPSt13_Rb_tree_nodeIS2_E.isra.0
	movq	%r12, %rcx
	movq	16(%r12), %r12
	movl	$40, %edx
	call	_ZdlPvy
	testq	%r12, %r12
	jne	.L799
.L798:
	movq	16(%rsi), %r12
	movl	$40, %edx
	movq	%rsi, %rcx
	call	_ZdlPvy
	testq	%r12, %r12
	je	.L797
	movq	%r12, %rsi
	jmp	.L800
.L795:
	movq	16(%rbx), %rdi
	movl	$40, %edx
	movq	%rbx, %rcx
	call	_ZdlPvy
	testq	%rdi, %rdi
	je	.L794
	movq	%rdi, %rbx
	jmp	.L803
	.p2align 4,,10
	.p2align 3
.L796:
	movq	16(%rdi), %rbp
	movl	$40, %edx
	movq	%rdi, %rcx
	call	_ZdlPvy
	testq	%rbp, %rbp
	je	.L795
	movq	%rbp, %rdi
	jmp	.L802
.L794:
	movq	16(%r15), %rbx
	movl	$40, %edx
	movq	%r15, %rcx
	call	_ZdlPvy
	testq	%rbx, %rbx
	je	.L793
	movq	%rbx, %r15
	jmp	.L804
	.p2align 4,,10
	.p2align 3
.L797:
	movq	16(%rbp), %rsi
	movl	$40, %edx
	movq	%rbp, %rcx
	call	_ZdlPvy
	testq	%rsi, %rsi
	je	.L796
	movq	%rsi, %rbp
	jmp	.L801
.L793:
	movq	16(%r14), %r15
	movl	$40, %edx
	movq	%r14, %rcx
	call	_ZdlPvy
	testq	%r15, %r15
	je	.L792
	movq	%r15, %r14
	jmp	.L805
.L792:
	movq	16(%r13), %r14
	movl	$40, %edx
	movq	%r13, %rcx
	call	_ZdlPvy
	testq	%r14, %r14
	je	.L791
	movq	%r14, %r13
	jmp	.L806
.L791:
	movq	112(%rsp), %rcx
	movl	$40, %edx
	movq	16(%rcx), %r13
	call	_ZdlPvy
	testq	%r13, %r13
	je	.L844
	movq	%r13, 112(%rsp)
	jmp	.L807
.L844:
	addq	$40, %rsp
	popq	%rbx
	popq	%rsi
	popq	%rdi
	popq	%rbp
	popq	%r12
	popq	%r13
	popq	%r14
	popq	%r15
	ret
	.seh_endproc
	.p2align 4
	.def	__tcf_ZN9StockfishL26STARTUP_PROCESSOR_AFFINITYE.lto_priv.2;	.scl	3;	.type	32;	.endef
	.seh_proc	__tcf_ZN9StockfishL26STARTUP_PROCESSOR_AFFINITYE.lto_priv.2
__tcf_ZN9StockfishL26STARTUP_PROCESSOR_AFFINITYE.lto_priv.2:
	pushq	%rbx
	.seh_pushreg	%rbx
	subq	$32, %rsp
	.seh_stackalloc	32
	.seh_endprologue
	cmpb	$0, 104+_ZN9StockfishL26STARTUP_PROCESSOR_AFFINITYE.lto_priv.2(%rip)
	jne	.L859
.L846:
	cmpb	$0, 48+_ZN9StockfishL26STARTUP_PROCESSOR_AFFINITYE.lto_priv.2(%rip)
	jne	.L860
.L858:
	addq	$32, %rsp
	popq	%rbx
	ret
	.p2align 4,,10
	.p2align 3
.L859:
	movq	72+_ZN9StockfishL26STARTUP_PROCESSOR_AFFINITYE.lto_priv.2(%rip), %rbx
	testq	%rbx, %rbx
	je	.L846
.L847:
	movq	24(%rbx), %rcx
	call	_ZNSt8_Rb_treeIyySt9_IdentityIyESt4lessIyESaIyEE8_M_eraseEPSt13_Rb_tree_nodeIyE.isra.0
	movq	%rbx, %rcx
	movq	16(%rbx), %rbx
	movl	$40, %edx
	call	_ZdlPvy
	testq	%rbx, %rbx
	jne	.L847
	cmpb	$0, 48+_ZN9StockfishL26STARTUP_PROCESSOR_AFFINITYE.lto_priv.2(%rip)
	je	.L858
.L860:
	movq	16+_ZN9StockfishL26STARTUP_PROCESSOR_AFFINITYE.lto_priv.2(%rip), %rbx
	testq	%rbx, %rbx
	je	.L858
.L849:
	movq	24(%rbx), %rcx
	call	_ZNSt8_Rb_treeIyySt9_IdentityIyESt4lessIyESaIyEE8_M_eraseEPSt13_Rb_tree_nodeIyE.isra.0
	movq	%rbx, %rcx
	movq	16(%rbx), %rbx
	movl	$40, %edx
	call	_ZdlPvy
	testq	%rbx, %rbx
	jne	.L849
	addq	$32, %rsp
	popq	%rbx
	ret
	.seh_endproc
	.p2align 4
	.def	__tcf_ZN9StockfishL26STARTUP_PROCESSOR_AFFINITYE.lto_priv.3;	.scl	3;	.type	32;	.endef
	.seh_proc	__tcf_ZN9StockfishL26STARTUP_PROCESSOR_AFFINITYE.lto_priv.3
__tcf_ZN9StockfishL26STARTUP_PROCESSOR_AFFINITYE.lto_priv.3:
	pushq	%rbx
	.seh_pushreg	%rbx
	subq	$32, %rsp
	.seh_stackalloc	32
	.seh_endprologue
	cmpb	$0, 104+_ZN9StockfishL26STARTUP_PROCESSOR_AFFINITYE.lto_priv.3(%rip)
	jne	.L875
.L862:
	cmpb	$0, 48+_ZN9StockfishL26STARTUP_PROCESSOR_AFFINITYE.lto_priv.3(%rip)
	jne	.L876
.L874:
	addq	$32, %rsp
	popq	%rbx
	ret
	.p2align 4,,10
	.p2align 3
.L875:
	movq	72+_ZN9StockfishL26STARTUP_PROCESSOR_AFFINITYE.lto_priv.3(%rip), %rbx
	testq	%rbx, %rbx
	je	.L862
.L863:
	movq	24(%rbx), %rcx
	call	_ZNSt8_Rb_treeIyySt9_IdentityIyESt4lessIyESaIyEE8_M_eraseEPSt13_Rb_tree_nodeIyE.isra.0
	movq	%rbx, %rcx
	movq	16(%rbx), %rbx
	movl	$40, %edx
	call	_ZdlPvy
	testq	%rbx, %rbx
	jne	.L863
	cmpb	$0, 48+_ZN9StockfishL26STARTUP_PROCESSOR_AFFINITYE.lto_priv.3(%rip)
	je	.L874
.L876:
	movq	16+_ZN9StockfishL26STARTUP_PROCESSOR_AFFINITYE.lto_priv.3(%rip), %rbx
	testq	%rbx, %rbx
	je	.L874
.L865:
	movq	24(%rbx), %rcx
	call	_ZNSt8_Rb_treeIyySt9_IdentityIyESt4lessIyESaIyEE8_M_eraseEPSt13_Rb_tree_nodeIyE.isra.0
	movq	%rbx, %rcx
	movq	16(%rbx), %rbx
	movl	$40, %edx
	call	_ZdlPvy
	testq	%rbx, %rbx
	jne	.L865
	addq	$32, %rsp
	popq	%rbx
	ret
	.seh_endproc
	.p2align 4
	.def	_ZSt4swapIN9Stockfish6Search8RootMoveEENSt9enable_ifIXsrSt6__and_IJSt6__not_ISt15__is_tuple_likeIT_EESt21is_move_constructibleIS7_ESt18is_move_assignableIS7_EEE5valueEvE4typeERS7_SH_;	.scl	3;	.type	32;	.endef
	.seh_proc	_ZSt4swapIN9Stockfish6Search8RootMoveEENSt9enable_ifIXsrSt6__and_IJSt6__not_ISt15__is_tuple_likeIT_EESt21is_move_constructibleIS7_ESt18is_move_assignableIS7_EEE5valueEvE4typeERS7_SH_
_ZSt4swapIN9Stockfish6Search8RootMoveEENSt9enable_ifIXsrSt6__and_IJSt6__not_ISt15__is_tuple_likeIT_EESt21is_move_constructibleIS7_ESt18is_move_assignableIS7_EEE5valueEvE4typeERS7_SH_:
	pushq	%rsi
	.seh_pushreg	%rsi
	pushq	%rbx
	.seh_pushreg	%rbx
	.seh_endprologue
	vpxor	%xmm2, %xmm2, %xmm2
	movq	(%rdx), %rsi
	vmovdqu	8(%rdx), %xmm3
	vpinsrw	$0, 28(%rdx), %xmm4, %xmm4
	movq	(%rcx), %rbx
	vmovdqu	8(%rcx), %xmm1
	movl	24(%rcx), %r11d
	movzwl	28(%rcx), %r10d
	movq	32(%rcx), %r9
	movl	40(%rcx), %r8d
	movq	%rcx, %rax
	vmovdqu	48(%rcx), %xmm0
	movq	64(%rcx), %rcx
	vmovdqu	%xmm3, 8(%rax)
	movq	%rsi, (%rax)
	movl	24(%rdx), %esi
	vpextrw	$0, %xmm4, 28(%rax)
	movq	$0, 64(%rax)
	movl	%esi, 24(%rax)
	vmovq	32(%rdx), %xmm5
	vmovdqu	%xmm2, 48(%rax)
	vmovdqu	48(%rdx), %xmm2
	vmovq	%xmm5, 32(%rax)
	movl	40(%rdx), %esi
	vmovdqu	%xmm2, 48(%rax)
	movl	%esi, 40(%rax)
	movq	64(%rdx), %rsi
	movq	%rsi, 64(%rax)
	movq	%rbx, (%rdx)
	movl	%r11d, 24(%rdx)
	movw	%r10w, 28(%rdx)
	movq	%r9, 32(%rdx)
	movl	%r8d, 40(%rdx)
	vmovdqu	%xmm1, 8(%rdx)
	vmovdqu	%xmm0, 48(%rdx)
	movq	%rcx, 64(%rdx)
	popq	%rbx
	popq	%rsi
	ret
	.seh_endproc
	.p2align 4
	.def	_ZNSt3_V28__rotateIN9__gnu_cxx17__normal_iteratorIPN9Stockfish6Search8RootMoveESt6vectorIS5_SaIS5_EEEEEET_SB_SB_SB_St26random_access_iterator_tag.isra.0;	.scl	3;	.type	32;	.endef
	.seh_proc	_ZNSt3_V28__rotateIN9__gnu_cxx17__normal_iteratorIPN9Stockfish6Search8RootMoveESt6vectorIS5_SaIS5_EEEEEET_SB_SB_SB_St26random_access_iterator_tag.isra.0
_ZNSt3_V28__rotateIN9__gnu_cxx17__normal_iteratorIPN9Stockfish6Search8RootMoveESt6vectorIS5_SaIS5_EEEEEET_SB_SB_SB_St26random_access_iterator_tag.isra.0:
	pushq	%r15
	.seh_pushreg	%r15
	pushq	%r14
	.seh_pushreg	%r14
	pushq	%r13
	.seh_pushreg	%r13
	pushq	%r12
	.seh_pushreg	%r12
	pushq	%rbp
	.seh_pushreg	%rbp
	pushq	%rdi
	.seh_pushreg	%rdi
	pushq	%rsi
	.seh_pushreg	%rsi
	pushq	%rbx
	.seh_pushreg	%rbx
	.seh_endprologue
	movq	%rdx, %r10
	movq	%rcx, %r11
	movq	%r8, %rax
	cmpq	%rdx, %rcx
	je	.L880
	movq	%rcx, %rax
	cmpq	%r8, %rdx
	je	.L880
	movq	%r8, %rax
	movq	%r10, %rbx
	vpxor	%xmm0, %xmm0, %xmm0
	subq	%r10, %r8
	subq	%rcx, %rax
	subq	%rcx, %rbx
	leaq	(%rcx,%r8), %r15
	movabsq	$-8198552921648689607, %rdx
	sarq	$3, %rax
	movq	%rbx, %r9
	imulq	%rdx, %rax
	sarq	$3, %r9
	imulq	%rdx, %r9
	movq	%rax, %rsi
	subq	%r9, %rsi
	cmpq	%rsi, %r9
	je	.L915
	movq	%rax, %r10
	subq	%r9, %r10
	cmpq	%r10, %r9
	jge	.L885
	.p2align 4
	.p2align 3
.L916:
	testq	%r10, %r10
	jle	.L886
	leaq	(%r9,%r9,8), %rcx
	xorl	%edx, %edx
	leaq	(%r11,%rcx,8), %r8
	movq	%r11, %rcx
	testb	$1, %r10b
	je	.L887
	vmovdqu	8(%r8), %xmm3
	movq	(%r8), %r12
	addq	$72, %r8
	vmovdqu	8(%r11), %xmm4
	movq	64(%r11), %rsi
	movq	$0, 64(%r11)
	vmovdqu	%xmm3, 8(%r11)
	movl	-48(%r8), %edx
	vmovdqu	48(%r11), %xmm2
	movzwl	-44(%r8), %ecx
	vmovdqu	%xmm0, 48(%r11)
	movq	(%r11), %r13
	movl	24(%r11), %ebp
	vmovdqu	-24(%r8), %xmm1
	movl	%edx, 24(%r11)
	movzwl	28(%r11), %edi
	movq	32(%r11), %rbx
	movq	%r12, (%r11)
	movq	-40(%r8), %r12
	movl	40(%r11), %r14d
	movw	%cx, 28(%r11)
	movq	%r12, 32(%r11)
	movl	-32(%r8), %edx
	vmovdqu	%xmm1, 48(%r11)
	movq	-8(%r8), %rcx
	movl	%edx, 40(%r11)
	movl	$1, %edx
	movq	%rcx, 64(%r11)
	leaq	72(%r11), %rcx
	movq	%r13, -72(%r8)
	vmovdqu	%xmm4, -64(%r8)
	movl	%ebp, -48(%r8)
	movw	%di, -44(%r8)
	movq	%rbx, -40(%r8)
	movl	%r14d, -32(%r8)
	vmovdqu	%xmm2, -24(%r8)
	movq	%rsi, -8(%r8)
	cmpq	$1, %r10
	je	.L912
	.p2align 4
	.p2align 3
.L887:
	movq	(%r8), %r14
	vmovdqu	8(%r8), %xmm2
	vpinsrw	$0, 28(%r8), %xmm3, %xmm3
	addq	$2, %rdx
	movq	(%rcx), %r13
	vmovdqu	8(%rcx), %xmm5
	addq	$144, %r8
	addq	$144, %rcx
	vmovdqu	%xmm2, -136(%rcx)
	movl	-120(%rcx), %r12d
	movq	-80(%rcx), %rbx
	vmovdqu	-96(%rcx), %xmm4
	vmovdqu	%xmm0, -96(%rcx)
	movl	-104(%rcx), %esi
	movq	-112(%rcx), %rdi
	movzwl	-116(%rcx), %ebp
	movq	%r14, -144(%rcx)
	movl	-120(%r8), %r14d
	movq	$0, -80(%rcx)
	vpextrw	$0, %xmm3, -116(%rcx)
	vmovdqu	-96(%r8), %xmm2
	movl	%r14d, -120(%rcx)
	vmovq	-112(%r8), %xmm1
	vmovq	%xmm1, -112(%rcx)
	movl	-104(%r8), %r14d
	vmovdqu	%xmm2, -96(%rcx)
	movl	%r14d, -104(%rcx)
	movq	-80(%r8), %r14
	movq	%r14, -80(%rcx)
	movq	%r13, -144(%r8)
	vmovdqu	%xmm5, -136(%r8)
	movl	%r12d, -120(%r8)
	movw	%bp, -116(%r8)
	movq	%rdi, -112(%r8)
	movl	%esi, -104(%r8)
	vmovdqu	%xmm4, -96(%r8)
	movq	-72(%r8), %r14
	movq	-72(%rcx), %r13
	vpinsrw	$0, -44(%r8), %xmm1, %xmm1
	vmovdqu	-64(%r8), %xmm3
	vmovdqu	-64(%rcx), %xmm5
	movq	%rbx, -80(%r8)
	movl	-48(%rcx), %r12d
	vmovdqu	-24(%rcx), %xmm4
	movq	%r14, -72(%rcx)
	vmovdqu	%xmm3, -64(%rcx)
	movl	-48(%r8), %r14d
	movq	-8(%rcx), %rbx
	vmovdqu	%xmm0, -24(%rcx)
	movq	-40(%rcx), %rdi
	movzwl	-44(%rcx), %ebp
	vpextrw	$0, %xmm1, -44(%rcx)
	movl	%r14d, -48(%rcx)
	vmovq	-40(%r8), %xmm2
	movq	$0, -8(%rcx)
	vmovdqu	-24(%r8), %xmm3
	vmovq	%xmm2, -40(%rcx)
	movl	-32(%r8), %r14d
	movl	-32(%rcx), %esi
	vmovdqu	%xmm3, -24(%rcx)
	movl	%r14d, -32(%rcx)
	movq	-8(%r8), %r14
	movq	%r14, -8(%rcx)
	movq	%r13, -72(%r8)
	vmovdqu	%xmm5, -64(%r8)
	movl	%r12d, -48(%r8)
	movw	%bp, -44(%r8)
	movq	%rdi, -40(%r8)
	movl	%esi, -32(%r8)
	vmovdqu	%xmm4, -24(%r8)
	movq	%rbx, -8(%r8)
	cmpq	%rdx, %r10
	jne	.L887
.L912:
	leaq	-9(%r10,%r10,8), %r10
	leaq	72(%r11,%r10,8), %r11
.L886:
	xorl	%edx, %edx
	divq	%r9
	testq	%rdx, %rdx
	je	.L914
	movq	%r9, %r10
	subq	%rdx, %r9
.L889:
	movq	%r10, %rax
	movq	%rax, %r10
	subq	%r9, %r10
	cmpq	%r10, %r9
	jl	.L916
.L885:
	leaq	(%rax,%rax,8), %rcx
	leaq	(%r10,%r10,8), %rdi
	leaq	(%r11,%rcx,8), %rbx
	salq	$3, %rdi
	movq	%rbx, %r11
	subq	%rdi, %r11
	testq	%r9, %r9
	jle	.L890
	leaq	-72(%r11), %rcx
	leaq	-72(%rbx), %r8
	xorl	%edx, %edx
	testb	$1, %r9b
	je	.L891
	movq	-72(%rbx), %r14
	vmovdqu	8(%r8), %xmm3
	vpinsrw	$0, 28(%r8), %xmm4, %xmm4
	movq	-72(%r11), %r13
	movq	64(%rcx), %rdx
	movq	$0, 64(%rcx)
	vmovdqu	48(%rcx), %xmm1
	vmovdqu	8(%rcx), %xmm2
	vmovdqu	%xmm0, 48(%rcx)
	movl	24(%rcx), %r12d
	movzwl	28(%rcx), %ebp
	movq	32(%rcx), %rdi
	movl	40(%rcx), %esi
	movq	%r14, -72(%r11)
	vmovdqu	%xmm3, 8(%rcx)
	movl	24(%r8), %r14d
	vmovdqu	48(%r8), %xmm3
	vpextrw	$0, %xmm4, 28(%rcx)
	movl	%r14d, 24(%rcx)
	vmovq	32(%r8), %xmm5
	vmovq	%xmm5, 32(%rcx)
	movl	40(%r8), %r14d
	vmovdqu	%xmm3, 48(%rcx)
	movl	%r14d, 40(%rcx)
	movq	64(%r8), %r14
	movq	%r14, 64(%rcx)
	leaq	-144(%r11), %rcx
	movq	%r13, -72(%rbx)
	movl	%r12d, 24(%r8)
	movw	%bp, 28(%r8)
	movq	%rdi, 32(%r8)
	movl	%esi, 40(%r8)
	vmovdqu	%xmm2, 8(%r8)
	vmovdqu	%xmm1, 48(%r8)
	movq	%rdx, 64(%r8)
	movl	$1, %edx
	leaq	-144(%rbx), %r8
	cmpq	$1, %r9
	je	.L913
	.p2align 4
	.p2align 3
.L891:
	movq	(%r8), %r14
	vmovdqu	8(%r8), %xmm4
	vpinsrw	$0, 28(%r8), %xmm5, %xmm5
	addq	$2, %rdx
	movq	(%rcx), %r13
	vmovdqu	8(%rcx), %xmm2
	subq	$144, %r8
	subq	$144, %rcx
	vmovdqu	%xmm4, 152(%rcx)
	movl	168(%rcx), %r12d
	movq	208(%rcx), %rbx
	movq	%r14, 144(%rcx)
	movl	168(%r8), %r14d
	vmovdqu	192(%rcx), %xmm1
	movq	176(%rcx), %rdi
	movq	$0, 208(%rcx)
	movl	%r14d, 168(%rcx)
	movzwl	172(%rcx), %ebp
	vpextrw	$0, %xmm5, 172(%rcx)
	vmovq	176(%r8), %xmm3
	vmovdqu	%xmm0, 192(%rcx)
	vmovdqu	192(%r8), %xmm4
	movl	184(%rcx), %esi
	vmovq	%xmm3, 176(%rcx)
	movl	184(%r8), %r14d
	vmovdqu	%xmm4, 192(%rcx)
	movl	%r14d, 184(%rcx)
	movq	208(%r8), %r14
	movq	%r14, 208(%rcx)
	movq	%r13, 144(%r8)
	vmovdqu	%xmm2, 152(%r8)
	movl	%r12d, 168(%r8)
	movw	%bp, 172(%r8)
	movq	%rdi, 176(%r8)
	movl	%esi, 184(%r8)
	vmovdqu	%xmm1, 192(%r8)
	movq	72(%r8), %rsi
	movl	112(%rcx), %ebp
	vpinsrw	$0, 100(%rcx), %xmm3, %xmm3
	vmovdqu	80(%rcx), %xmm4
	movl	96(%rcx), %r12d
	movq	%rbx, 208(%r8)
	vmovdqu	80(%r8), %xmm5
	vmovdqu	120(%rcx), %xmm1
	vmovdqu	%xmm0, 120(%rcx)
	movq	136(%rcx), %rdi
	vmovq	104(%rcx), %xmm2
	movq	$0, 136(%rcx)
	vmovdqu	%xmm5, 80(%rcx)
	movl	96(%r8), %ebx
	vpinsrw	$0, 100(%r8), %xmm5, %xmm5
	vpextrw	$0, %xmm5, 100(%rcx)
	movq	72(%rcx), %r13
	movq	%rsi, 72(%rcx)
	movl	%ebx, 96(%rcx)
	vmovq	104(%r8), %xmm5
	vmovq	%xmm5, 104(%rcx)
	vmovdqu	120(%r8), %xmm5
	movl	112(%r8), %r14d
	vmovdqu	%xmm5, 120(%rcx)
	movq	136(%r8), %rsi
	movl	%r14d, 112(%rcx)
	movq	%rsi, 136(%rcx)
	vpextrw	$0, %xmm3, 100(%r8)
	movq	%r13, 72(%r8)
	vmovdqu	%xmm4, 80(%r8)
	movl	%r12d, 96(%r8)
	vmovq	%xmm2, 104(%r8)
	movl	%ebp, 112(%r8)
	vmovdqu	%xmm1, 120(%r8)
	movq	%rdi, 136(%r8)
	cmpq	%rdx, %r9
	jne	.L891
.L913:
	imulq	$-72, %r9, %r9
	addq	%r9, %r11
.L890:
	xorl	%edx, %edx
	divq	%r10
	movq	%rdx, %r9
	testq	%rdx, %rdx
	jne	.L889
.L914:
	movq	%r15, %rax
.L880:
	popq	%rbx
	popq	%rsi
	popq	%rdi
	popq	%rbp
	popq	%r12
	popq	%r13
	popq	%r14
	popq	%r15
	ret
.L915:
	andl	$8, %ebx
	movq	%rcx, %r13
	movq	%r10, %rax
	je	.L883
	movq	(%rcx), %r12
	vmovdqu	8(%rcx), %xmm5
	addq	$72, %r13
	leaq	72(%r10), %rax
	vmovdqu	8(%r10), %xmm1
	movl	24(%rcx), %r11d
	movzwl	28(%rcx), %r9d
	movq	32(%rcx), %r8
	movq	(%r10), %rdi
	movl	40(%rcx), %ecx
	vmovdqu	%xmm1, -64(%r13)
	movl	24(%r10), %esi
	movq	-8(%r13), %rbp
	movq	$0, -8(%r13)
	vmovdqu	-24(%r13), %xmm4
	movzwl	28(%r10), %ebx
	vmovdqu	%xmm0, -24(%r13)
	movl	%esi, -48(%r13)
	vmovdqu	48(%r10), %xmm2
	movq	32(%r10), %r14
	movq	%rdi, -72(%r13)
	movw	%bx, -44(%r13)
	movq	%r14, -40(%r13)
	movl	40(%r10), %edx
	vmovdqu	%xmm2, -24(%r13)
	movq	64(%r10), %r15
	movl	%edx, -32(%r13)
	movq	%r15, -8(%r13)
	movq	%r12, (%r10)
	movl	%r11d, 24(%r10)
	movw	%r9w, 28(%r10)
	movq	%r8, 32(%r10)
	movl	%ecx, 40(%r10)
	vmovdqu	%xmm5, 8(%r10)
	vmovdqu	%xmm4, 48(%r10)
	movq	%rbp, 64(%r10)
	cmpq	%r13, %r10
	je	.L911
	.p2align 4
	.p2align 3
.L883:
	vmovdqu	8(%rax), %xmm3
	movq	(%rax), %rdi
	addq	$144, %rax
	addq	$144, %r13
	vmovdqu	-136(%r13), %xmm5
	movq	-80(%r13), %rcx
	movq	$0, -80(%r13)
	vmovdqu	%xmm3, -136(%r13)
	movl	-120(%rax), %esi
	vmovdqu	-96(%r13), %xmm4
	movl	-120(%r13), %ebp
	vmovdqu	%xmm0, -96(%r13)
	vmovdqu	-96(%rax), %xmm1
	movq	-144(%r13), %r12
	movzwl	-116(%r13), %r11d
	movl	%esi, -120(%r13)
	movq	-112(%rax), %r14
	movq	-112(%r13), %r9
	movq	%rdi, -144(%r13)
	movl	-104(%r13), %r8d
	movzwl	-116(%rax), %ebx
	movq	%r14, -112(%r13)
	movl	-104(%rax), %edx
	vmovdqu	%xmm1, -96(%r13)
	movq	-80(%rax), %r15
	movw	%bx, -116(%r13)
	movl	%edx, -104(%r13)
	movq	%r15, -80(%r13)
	movq	%r12, -144(%rax)
	vmovdqu	%xmm5, -136(%rax)
	movl	%ebp, -120(%rax)
	movw	%r11w, -116(%rax)
	movq	%r9, -112(%rax)
	movl	%r8d, -104(%rax)
	vmovdqu	%xmm4, -96(%rax)
	vmovdqu	-64(%rax), %xmm4
	movq	-72(%rax), %rdi
	vmovdqu	-64(%r13), %xmm2
	movl	-48(%r13), %ebp
	movq	%rcx, -80(%rax)
	vmovdqu	%xmm4, -64(%r13)
	movl	-48(%rax), %esi
	vmovdqu	-24(%r13), %xmm5
	movq	-8(%r13), %rcx
	vmovdqu	%xmm0, -24(%r13)
	movq	-40(%r13), %r9
	movzwl	-44(%rax), %ebx
	movq	-72(%r13), %r12
	movl	%esi, -48(%r13)
	movq	-40(%rax), %r14
	movzwl	-44(%r13), %r11d
	movq	$0, -8(%r13)
	vmovdqu	-24(%rax), %xmm3
	movl	-32(%r13), %r8d
	movq	%rdi, -72(%r13)
	movq	%r14, -40(%r13)
	movl	-32(%rax), %edx
	vmovdqu	%xmm3, -24(%r13)
	movq	-8(%rax), %r15
	movw	%bx, -44(%r13)
	movl	%edx, -32(%r13)
	movq	%r15, -8(%r13)
	movq	%r12, -72(%rax)
	vmovdqu	%xmm2, -64(%rax)
	movl	%ebp, -48(%rax)
	movw	%r11w, -44(%rax)
	movq	%r9, -40(%rax)
	movl	%r8d, -32(%rax)
	vmovdqu	%xmm5, -24(%rax)
	movq	%rcx, -8(%rax)
	cmpq	%r13, %r10
	jne	.L883
.L911:
	movq	%r10, %rax
	popq	%rbx
	popq	%rsi
	popq	%rdi
	popq	%rbp
	popq	%r12
	popq	%r13
	popq	%r14
	popq	%r15
	ret
	.seh_endproc
	.p2align 4
	.def	_ZSt16__merge_adaptiveIN9__gnu_cxx17__normal_iteratorIPN9Stockfish6Search8RootMoveESt6vectorIS4_SaIS4_EEEExS5_NS0_5__ops15_Iter_less_iterEEvT_SC_SC_T0_SD_T1_T2_.isra.0;	.scl	3;	.type	32;	.endef
	.seh_proc	_ZSt16__merge_adaptiveIN9__gnu_cxx17__normal_iteratorIPN9Stockfish6Search8RootMoveESt6vectorIS4_SaIS4_EEEExS5_NS0_5__ops15_Iter_less_iterEEvT_SC_SC_T0_SD_T1_T2_.isra.0
_ZSt16__merge_adaptiveIN9__gnu_cxx17__normal_iteratorIPN9Stockfish6Search8RootMoveESt6vectorIS4_SaIS4_EEEExS5_NS0_5__ops15_Iter_less_iterEEvT_SC_SC_T0_SD_T1_T2_.isra.0:
	pushq	%r15
	.seh_pushreg	%r15
	pushq	%r14
	.seh_pushreg	%r14
	pushq	%r13
	.seh_pushreg	%r13
	pushq	%r12
	.seh_pushreg	%r12
	pushq	%rbp
	.seh_pushreg	%rbp
	pushq	%rdi
	.seh_pushreg	%rdi
	pushq	%rsi
	.seh_pushreg	%rsi
	pushq	%rbx
	.seh_pushreg	%rbx
	subq	$72, %rsp
	.seh_stackalloc	72
	vmovups	%xmm6, 48(%rsp)
	.seh_savexmm	%xmm6, 48
	.seh_endprologue
	movq	184(%rsp), %rdi
	movq	%rcx, %r12
	movq	%rdx, %rbp
	movq	%r8, %r13
	movq	%rdx, %rsi
	movq	%rcx, %rbx
	cmpq	176(%rsp), %r9
	jg	.L918
	cmpq	%rdx, %rcx
	je	.L1036
	movq	%rcx, %r15
	movq	%rdx, %rcx
	vpxor	%xmm6, %xmm6, %xmm6
	movq	%rdi, %r14
	subq	%r12, %rcx
	testb	$8, %cl
	je	.L921
	vmovdqu	8(%r12), %xmm2
	movq	(%r12), %r15
	vmovdqu	48(%r12), %xmm3
	movzwl	28(%r12), %r11d
	vmovdqu	%xmm2, 8(%rdi)
	movl	24(%r12), %r10d
	movq	48(%rdi), %rcx
	movq	%r15, (%rdi)
	movl	%r10d, 24(%rdi)
	movq	32(%r12), %rdx
	movw	%r11w, 28(%rdi)
	movq	%rdx, 32(%rdi)
	movl	40(%r12), %r8d
	vmovdqu	%xmm3, 48(%rdi)
	movq	64(%r12), %r9
	movq	64(%rdi), %rdx
	movl	%r8d, 40(%rdi)
	movq	%r9, 64(%rdi)
	movq	$0, 64(%r12)
	vmovdqu	%xmm6, 48(%r12)
	testq	%rcx, %rcx
	je	.L979
	subq	%rcx, %rdx
	call	_ZdlPvy
.L979:
	leaq	72(%r12), %r15
	leaq	72(%rdi), %r14
	cmpq	%rbp, %r15
	je	.L1035
	.p2align 4
	.p2align 3
.L921:
	vmovdqu	8(%r15), %xmm4
	movq	(%r15), %r12
	movzwl	28(%r15), %ecx
	vmovdqu	48(%r15), %xmm1
	vmovdqu	%xmm4, 8(%r14)
	movl	24(%r15), %eax
	movq	64(%r14), %rdx
	movw	%cx, 28(%r14)
	movq	48(%r14), %rcx
	movl	%eax, 24(%r14)
	movq	32(%r15), %r10
	movq	%r12, (%r14)
	movq	%r10, 32(%r14)
	movl	40(%r15), %r11d
	vmovdqu	%xmm1, 48(%r14)
	movq	64(%r15), %r8
	movl	%r11d, 40(%r14)
	movq	%r8, 64(%r14)
	movq	$0, 64(%r15)
	vmovdqu	%xmm6, 48(%r15)
	testq	%rcx, %rcx
	je	.L920
	subq	%rcx, %rdx
	call	_ZdlPvy
.L920:
	leaq	72(%r15), %r12
	vmovdqu	8(%r12), %xmm5
	movq	72(%r15), %r15
	leaq	72(%r14), %rax
	movzwl	28(%r12), %edx
	vmovdqu	48(%r12), %xmm0
	movq	%r15, 72(%r14)
	vmovdqu	%xmm5, 8(%rax)
	movl	24(%r12), %r14d
	movw	%dx, 28(%rax)
	movq	64(%rax), %rdx
	movl	%r14d, 24(%rax)
	movq	32(%r12), %r9
	movq	%r9, 32(%rax)
	movl	40(%r12), %ecx
	movl	%ecx, 40(%rax)
	movq	48(%rax), %rcx
	vmovdqu	%xmm0, 48(%rax)
	movq	64(%r12), %r10
	movq	%r10, 64(%rax)
	movq	$0, 64(%r12)
	vmovdqu	%xmm6, 48(%r12)
	testq	%rcx, %rcx
	je	.L982
	subq	%rcx, %rdx
	movq	%rax, 40(%rsp)
	call	_ZdlPvy
	movq	40(%rsp), %rax
.L982:
	leaq	72(%r12), %r15
	leaq	72(%rax), %r14
	cmpq	%rbp, %r15
	jne	.L921
.L1035:
	cmpq	%rdi, %r14
	je	.L1036
	vpxor	%xmm6, %xmm6, %xmm6
	jmp	.L922
	.p2align 4,,10
	.p2align 3
.L930:
	jl	.L1042
.L923:
	vmovd	16(%rdi), %xmm2
	vmovd	%r10d, %xmm4
	movq	(%rdi), %rax
	vpinsrd	$1, 20(%rdi), %xmm2, %xmm3
	vpinsrd	$1, 12(%rdi), %xmm4, %xmm1
	vmovdqu	48(%rdi), %xmm0
	movzwl	28(%rdi), %ebp
	movq	%rax, (%rbx)
	vpunpcklqdq	%xmm3, %xmm1, %xmm5
	movq	48(%rbx), %rcx
	movq	64(%rbx), %rdx
	vmovdqu	%xmm5, 8(%rbx)
	movl	24(%rdi), %r15d
	movw	%bp, 28(%rbx)
	movl	%r15d, 24(%rbx)
	movq	32(%rdi), %r11
	movq	%r11, 32(%rbx)
	movl	40(%rdi), %r8d
	vmovdqu	%xmm0, 48(%rbx)
	movq	64(%rdi), %r12
	movl	%r8d, 40(%rbx)
	movq	%r12, 64(%rbx)
	movq	$0, 64(%rdi)
	vmovdqu	%xmm6, 48(%rdi)
	testq	%rcx, %rcx
	je	.L927
	subq	%rcx, %rdx
	call	_ZdlPvy
.L927:
	addq	$72, %rdi
	addq	$72, %rbx
	cmpq	%rdi, %r14
	je	.L1036
.L922:
	cmpq	%rsi, %r13
	je	.L929
	movl	8(%rdi), %r10d
	movl	8(%rsi), %edx
	cmpl	%edx, %r10d
	jne	.L930
	movl	12(%rsi), %ecx
	cmpl	%ecx, 12(%rdi)
	jge	.L923
.L924:
	vmovd	16(%rsi), %xmm2
	vmovd	%edx, %xmm3
	movq	(%rsi), %r9
	vpinsrd	$1, %ecx, %xmm3, %xmm1
	vpinsrd	$1, 20(%rsi), %xmm2, %xmm4
	vmovdqu	48(%rsi), %xmm0
	movzwl	28(%rsi), %edx
	movq	%r9, (%rbx)
	vpunpcklqdq	%xmm4, %xmm1, %xmm5
	vmovdqu	%xmm5, 8(%rbx)
	movl	24(%rsi), %r10d
	movw	%dx, 28(%rbx)
	movq	64(%rbx), %rdx
	movl	%r10d, 24(%rbx)
	movq	32(%rsi), %rcx
	movq	%rcx, 32(%rbx)
	movq	48(%rbx), %rcx
	movl	40(%rsi), %eax
	vmovdqu	%xmm0, 48(%rbx)
	movq	64(%rsi), %r15
	movl	%eax, 40(%rbx)
	movq	%r15, 64(%rbx)
	movq	$0, 64(%rsi)
	vmovdqu	%xmm6, 48(%rsi)
	testq	%rcx, %rcx
	je	.L925
	subq	%rcx, %rdx
	call	_ZdlPvy
.L925:
	addq	$72, %rsi
	addq	$72, %rbx
	cmpq	%rdi, %r14
	jne	.L922
.L1036:
	vmovups	48(%rsp), %xmm6
	addq	$72, %rsp
	popq	%rbx
	popq	%rsi
	popq	%rdi
	popq	%rbp
	popq	%r12
	popq	%r13
	popq	%r14
	popq	%r15
	ret
	.p2align 4,,10
	.p2align 3
.L918:
	movq	%r8, %rbx
	cmpq	%rdx, %r8
	je	.L1036
	movq	%r8, %rax
	movq	%rdx, %r14
	vpxor	%xmm6, %xmm6, %xmm6
	movq	%rdi, %rsi
	subq	%rdx, %rax
	testb	$8, %al
	jne	.L935
	vmovdqu	8(%rbp), %xmm0
	movq	(%rdx), %rdx
	vmovdqu	48(%rbp), %xmm1
	movzwl	28(%rbp), %r8d
	vmovdqu	%xmm0, 8(%rdi)
	movl	24(%rbp), %ecx
	movq	%rdx, (%rdi)
	movq	64(%rdi), %rdx
	movl	%ecx, 24(%rdi)
	movq	32(%rbp), %r9
	movq	48(%rdi), %rcx
	movw	%r8w, 28(%rdi)
	movq	%r9, 32(%rdi)
	movl	40(%rbp), %r10d
	vmovdqu	%xmm1, 48(%rdi)
	movq	64(%rbp), %r11
	movl	%r10d, 40(%rdi)
	movq	%r11, 64(%rdi)
	movq	$0, 64(%rbp)
	vmovdqu	%xmm6, 48(%rbp)
	testq	%rcx, %rcx
	je	.L994
	subq	%rcx, %rdx
	call	_ZdlPvy
.L994:
	leaq	72(%rbp), %r14
	leaq	72(%rdi), %rsi
	jmp	.L935
	.p2align 4,,10
	.p2align 3
.L950:
	movq	72(%r14), %r10
	vmovdqu	8(%rax), %xmm5
	vmovdqu	48(%rax), %xmm0
	movzwl	28(%rax), %r11d
	movq	%r10, 72(%rsi)
	movq	48(%r15), %rcx
	vmovdqu	%xmm5, 8(%r15)
	movl	24(%rax), %esi
	movw	%r11w, 28(%r15)
	movl	%esi, 24(%r15)
	movq	32(%rax), %rdx
	movq	%rdx, 32(%r15)
	movl	40(%rax), %r8d
	vmovdqu	%xmm0, 48(%r15)
	movq	64(%rax), %r9
	movq	64(%r15), %rdx
	movl	%r8d, 40(%r15)
	movq	%r9, 64(%r15)
	movq	$0, 64(%rax)
	vmovdqu	%xmm6, 48(%rax)
	testq	%rcx, %rcx
	je	.L997
	subq	%rcx, %rdx
	movq	%rax, 40(%rsp)
	call	_ZdlPvy
	movq	40(%rsp), %rax
.L997:
	leaq	72(%rax), %r14
	leaq	72(%r15), %rsi
.L935:
	vmovdqu	8(%r14), %xmm2
	movq	(%r14), %r15
	vmovdqu	48(%r14), %xmm3
	movzwl	28(%r14), %edx
	vmovdqu	%xmm2, 8(%rsi)
	movl	24(%r14), %eax
	movq	%r15, (%rsi)
	movl	%eax, 24(%rsi)
	movq	32(%r14), %rcx
	movw	%dx, 28(%rsi)
	movq	64(%rsi), %rdx
	movq	%rcx, 32(%rsi)
	movq	48(%rsi), %rcx
	movl	40(%r14), %r8d
	vmovdqu	%xmm3, 48(%rsi)
	movq	64(%r14), %r9
	movl	%r8d, 40(%rsi)
	movq	%r9, 64(%rsi)
	movq	$0, 64(%r14)
	vmovdqu	%xmm6, 48(%r14)
	testq	%rcx, %rcx
	je	.L934
	subq	%rcx, %rdx
	call	_ZdlPvy
.L934:
	leaq	72(%r14), %rax
	leaq	72(%rsi), %r15
	cmpq	%rax, %r13
	jne	.L950
	cmpq	%rbp, %r12
	je	.L1043
	cmpq	%r15, %rdi
	je	.L1036
	subq	$72, %rbp
	vpxor	%xmm6, %xmm6, %xmm6
	.p2align 4
	.p2align 3
.L939:
	movl	8(%rbp), %r14d
	movl	8(%rsi), %r13d
	cmpl	%r13d, %r14d
	jne	.L1037
.L940:
	movl	12(%rsi), %r10d
	cmpl	%r10d, 12(%rbp)
.L1037:
	setl	%r11b
	movq	-24(%rbx), %r15
	movq	-8(%rbx), %rcx
	subq	$72, %rbx
	subq	%r15, %rcx
	testb	%r11b, %r11b
	je	.L1044
	vmovd	16(%rbp), %xmm4
	vmovd	%r14d, %xmm5
	movq	0(%rbp), %r10
	vpinsrd	$1, 20(%rbp), %xmm4, %xmm1
	vpinsrd	$1, 12(%rbp), %xmm5, %xmm0
	vmovdqu	48(%rbp), %xmm3
	movzwl	28(%rbp), %eax
	movq	%r10, (%rbx)
	vpunpcklqdq	%xmm1, %xmm0, %xmm2
	vmovdqu	%xmm2, 8(%rbx)
	movl	24(%rbp), %r11d
	movw	%ax, 28(%rbx)
	movl	%r11d, 24(%rbx)
	movq	32(%rbp), %rdx
	movq	%rdx, 32(%rbx)
	movl	40(%rbp), %r8d
	vmovdqu	%xmm3, 48(%rbx)
	movq	64(%rbp), %r9
	movl	%r8d, 40(%rbx)
	movq	%r9, 64(%rbx)
	movq	$0, 64(%rbp)
	vmovdqu	%xmm6, 48(%rbp)
	testq	%r15, %r15
	je	.L942
	movq	%rcx, %rdx
	movq	%r15, %rcx
	call	_ZdlPvy
.L942:
	cmpq	%r12, %rbp
	je	.L1045
	movl	8(%rsi), %r13d
	movl	-64(%rbp), %r14d
	subq	$72, %rbp
	cmpl	%r13d, %r14d
	jne	.L1037
	jmp	.L940
	.p2align 4,,10
	.p2align 3
.L1044:
	vmovd	16(%rsi), %xmm4
	vmovd	%r13d, %xmm5
	movq	(%rsi), %rax
	vpinsrd	$1, 20(%rsi), %xmm4, %xmm1
	vpinsrd	$1, 12(%rsi), %xmm5, %xmm0
	vmovdqu	48(%rsi), %xmm3
	movzwl	28(%rsi), %r8d
	movq	%rax, (%rbx)
	vpunpcklqdq	%xmm1, %xmm0, %xmm2
	vmovdqu	%xmm2, 8(%rbx)
	movl	24(%rsi), %edx
	movw	%r8w, 28(%rbx)
	movl	%edx, 24(%rbx)
	movq	32(%rsi), %r9
	movq	%r9, 32(%rbx)
	movl	40(%rsi), %r14d
	vmovdqu	%xmm3, 48(%rbx)
	movq	64(%rsi), %r13
	movl	%r14d, 40(%rbx)
	movq	%r13, 64(%rbx)
	movq	$0, 64(%rsi)
	vmovdqu	%xmm6, 48(%rsi)
	testq	%r15, %r15
	je	.L947
	movq	%rcx, %rdx
	movq	%r15, %rcx
	call	_ZdlPvy
.L947:
	cmpq	%rsi, %rdi
	je	.L1036
	subq	$72, %rsi
	jmp	.L939
	.p2align 4,,10
	.p2align 3
.L1042:
	movl	12(%rsi), %ecx
	jmp	.L924
	.p2align 4,,10
	.p2align 3
.L929:
	cmpq	%rdi, %r14
	je	.L1036
	movq	%r14, %r13
	vpxor	%xmm6, %xmm6, %xmm6
	subq	%rdi, %r13
	testb	$8, %r13b
	jne	.L1026
	.p2align 4
	.p2align 3
.L933:
	vmovdqu	8(%rdi), %xmm4
	movq	(%rdi), %rdx
	vmovdqu	48(%rdi), %xmm1
	movzwl	28(%rdi), %r10d
	vmovdqu	%xmm4, 8(%rbx)
	movl	24(%rdi), %ecx
	movq	%rdx, (%rbx)
	movq	64(%rbx), %rdx
	movl	%ecx, 24(%rbx)
	movq	32(%rdi), %rax
	movq	48(%rbx), %rcx
	movw	%r10w, 28(%rbx)
	movq	%rax, 32(%rbx)
	movl	40(%rdi), %r15d
	vmovdqu	%xmm1, 48(%rbx)
	movq	64(%rdi), %r13
	movl	%r15d, 40(%rbx)
	movq	%r13, 64(%rbx)
	movq	$0, 64(%rdi)
	vmovdqu	%xmm6, 48(%rdi)
	testq	%rcx, %rcx
	je	.L932
	subq	%rcx, %rdx
	call	_ZdlPvy
.L932:
	leaq	72(%rdi), %rsi
	vmovdqu	8(%rsi), %xmm5
	movq	72(%rdi), %rdi
	leaq	72(%rbx), %rbp
	vmovdqu	48(%rsi), %xmm0
	movzwl	28(%rsi), %r11d
	movq	48(%rbp), %rcx
	movq	64(%rbp), %rdx
	movq	%rdi, 72(%rbx)
	vmovdqu	%xmm5, 8(%rbp)
	movl	24(%rsi), %ebx
	movw	%r11w, 28(%rbp)
	movl	%ebx, 24(%rbp)
	movq	32(%rsi), %r8
	movq	%r8, 32(%rbp)
	movl	40(%rsi), %r12d
	vmovdqu	%xmm0, 48(%rbp)
	movq	64(%rsi), %r9
	movl	%r12d, 40(%rbp)
	movq	%r9, 64(%rbp)
	movq	$0, 64(%rsi)
	vmovdqu	%xmm6, 48(%rsi)
	testq	%rcx, %rcx
	je	.L977
	subq	%rcx, %rdx
	call	_ZdlPvy
.L977:
	leaq	72(%rsi), %rdi
	leaq	72(%rbp), %rbx
	cmpq	%rdi, %r14
	jne	.L933
	jmp	.L1036
	.p2align 4,,10
	.p2align 3
.L1026:
	vmovdqu	8(%rdi), %xmm2
	movq	(%rdi), %rbp
	vmovdqu	48(%rdi), %xmm3
	movzwl	28(%rdi), %r11d
	vmovdqu	%xmm2, 8(%rbx)
	movl	24(%rdi), %esi
	movq	48(%rbx), %rcx
	movq	64(%rbx), %rdx
	movq	%rbp, (%rbx)
	movl	%esi, 24(%rbx)
	movq	32(%rdi), %r8
	movw	%r11w, 28(%rbx)
	movq	%r8, 32(%rbx)
	movl	40(%rdi), %r12d
	vmovdqu	%xmm3, 48(%rbx)
	movq	64(%rdi), %r9
	movl	%r12d, 40(%rbx)
	movq	%r9, 64(%rbx)
	movq	$0, 64(%rdi)
	vmovdqu	%xmm6, 48(%rdi)
	testq	%rcx, %rcx
	je	.L974
	subq	%rcx, %rdx
	call	_ZdlPvy
.L974:
	addq	$72, %rdi
	addq	$72, %rbx
	cmpq	%rdi, %r14
	jne	.L933
	jmp	.L1036
	.p2align 4,,10
	.p2align 3
.L1045:
	leaq	72(%rsi), %rbp
	cmpq	%rbp, %rdi
	je	.L1036
	movq	%rbp, %r15
	vpxor	%xmm6, %xmm6, %xmm6
	subq	%rdi, %r15
	testb	$8, %r15b
	je	.L945
	movq	%rsi, %rbp
	movq	(%rsi), %rsi
	subq	$72, %rbx
	movq	%rsi, (%rbx)
	jmp	.L1041
	.p2align 4,,10
	.p2align 3
.L945:
	movq	-72(%rbp), %r11
	leaq	-72(%rbx), %rsi
	movzwl	-44(%rbp), %eax
	leaq	-72(%rbp), %r15
	vmovdqu	8(%r15), %xmm5
	vmovdqu	48(%r15), %xmm0
	movq	%r11, -72(%rbx)
	movq	48(%rsi), %rcx
	vmovdqu	%xmm5, 8(%rsi)
	movl	24(%r15), %ebx
	movw	%ax, 28(%rsi)
	movl	%ebx, 24(%rsi)
	movq	32(%r15), %rdx
	movq	%rdx, 32(%rsi)
	movl	40(%r15), %r8d
	vmovdqu	%xmm0, 48(%rsi)
	movq	64(%r15), %r9
	movq	64(%rsi), %rdx
	movl	%r8d, 40(%rsi)
	movq	%r9, 64(%rsi)
	movq	$0, 64(%r15)
	vmovdqu	%xmm6, 48(%r15)
	testq	%rcx, %rcx
	je	.L944
	subq	%rcx, %rdx
	call	_ZdlPvy
.L944:
	movq	-72(%r15), %rcx
	leaq	-72(%r15), %rbp
	leaq	-72(%rsi), %rbx
	movq	%rcx, -72(%rsi)
.L1041:
	vmovdqu	8(%rbp), %xmm4
	vmovdqu	48(%rbp), %xmm1
	movzwl	28(%rbp), %r12d
	movq	64(%rbx), %rdx
	vmovdqu	%xmm4, 8(%rbx)
	movl	24(%rbp), %ecx
	movw	%r12w, 28(%rbx)
	movl	%ecx, 24(%rbx)
	movq	32(%rbp), %r14
	movq	48(%rbx), %rcx
	movq	%r14, 32(%rbx)
	movl	40(%rbp), %r13d
	vmovdqu	%xmm1, 48(%rbx)
	movq	64(%rbp), %r10
	movl	%r13d, 40(%rbx)
	movq	%r10, 64(%rbx)
	movq	$0, 64(%rbp)
	vmovdqu	%xmm6, 48(%rbp)
	testq	%rcx, %rcx
	je	.L992
	subq	%rcx, %rdx
	call	_ZdlPvy
.L992:
	cmpq	%rbp, %rdi
	jne	.L945
	jmp	.L1036
	.p2align 4,,10
	.p2align 3
.L1043:
	cmpq	%r15, %rdi
	je	.L1036
	movq	%r15, %rbp
	vpxor	%xmm6, %xmm6, %xmm6
	subq	%rdi, %rbp
	testb	$8, %bpl
	jne	.L1030
	.p2align 4
	.p2align 3
.L938:
	movq	-72(%r15), %rax
	vmovdqu	-64(%r15), %xmm4
	leaq	-72(%rbx), %r12
	leaq	-72(%r15), %rbp
	movzwl	28(%rbp), %r8d
	vmovdqu	48(%rbp), %xmm1
	movq	%rax, -72(%rbx)
	vmovdqu	%xmm4, 8(%r12)
	movl	24(%rbp), %edx
	movw	%r8w, 28(%r12)
	movl	%edx, 24(%r12)
	movq	32(%rbp), %r9
	movq	64(%r12), %rdx
	movq	%r9, 32(%r12)
	movl	40(%rbp), %ecx
	movl	%ecx, 40(%r12)
	movq	48(%r12), %rcx
	vmovdqu	%xmm1, 48(%r12)
	movq	64(%rbp), %r15
	movq	%r15, 64(%r12)
	movq	$0, 64(%rbp)
	vmovdqu	%xmm6, 48(%rbp)
	testq	%rcx, %rcx
	je	.L937
	subq	%rcx, %rdx
	call	_ZdlPvy
.L937:
	movq	-72(%rbp), %r14
	leaq	-72(%rbp), %r15
	leaq	-72(%r12), %rbx
	movq	%r14, -72(%r12)
.L1039:
	vmovdqu	8(%r15), %xmm2
	vmovdqu	48(%r15), %xmm3
	movzwl	28(%r15), %r13d
	movq	48(%rbx), %rcx
	vmovdqu	%xmm2, 8(%rbx)
	movl	24(%r15), %r14d
	movq	64(%rbx), %rdx
	movw	%r13w, 28(%rbx)
	movl	%r14d, 24(%rbx)
	movq	32(%r15), %r10
	movq	%r10, 32(%rbx)
	movl	40(%r15), %esi
	vmovdqu	%xmm3, 48(%rbx)
	movq	64(%r15), %r11
	movl	%esi, 40(%rbx)
	movq	%r11, 64(%rbx)
	movq	$0, 64(%r15)
	vmovdqu	%xmm6, 48(%r15)
	testq	%rcx, %rcx
	je	.L987
	subq	%rcx, %rdx
	call	_ZdlPvy
.L987:
	cmpq	%r15, %rdi
	jne	.L938
	jmp	.L1036
.L1030:
	movq	(%rsi), %r12
	movq	%rsi, %r15
	movq	%r14, %rbx
	movq	%r12, (%r14)
	jmp	.L1039
	.seh_endproc
	.p2align 4
	.def	_ZSt16__insertion_sortIN9__gnu_cxx17__normal_iteratorIPN9Stockfish6Search8RootMoveESt6vectorIS4_SaIS4_EEEENS0_5__ops15_Iter_less_iterEEvT_SC_T0_.isra.0;	.scl	3;	.type	32;	.endef
	.seh_proc	_ZSt16__insertion_sortIN9__gnu_cxx17__normal_iteratorIPN9Stockfish6Search8RootMoveESt6vectorIS4_SaIS4_EEEENS0_5__ops15_Iter_less_iterEEvT_SC_T0_.isra.0
_ZSt16__insertion_sortIN9__gnu_cxx17__normal_iteratorIPN9Stockfish6Search8RootMoveESt6vectorIS4_SaIS4_EEEENS0_5__ops15_Iter_less_iterEEvT_SC_T0_.isra.0:
	pushq	%r15
	.seh_pushreg	%r15
	pushq	%r14
	.seh_pushreg	%r14
	pushq	%r13
	.seh_pushreg	%r13
	pushq	%r12
	.seh_pushreg	%r12
	pushq	%rbp
	.seh_pushreg	%rbp
	pushq	%rdi
	.seh_pushreg	%rdi
	pushq	%rsi
	.seh_pushreg	%rsi
	pushq	%rbx
	.seh_pushreg	%rbx
	subq	$136, %rsp
	.seh_stackalloc	136
	vmovups	%xmm6, 48(%rsp)
	.seh_savexmm	%xmm6, 48
	vmovups	%xmm7, 64(%rsp)
	.seh_savexmm	%xmm7, 64
	vmovups	%xmm8, 80(%rsp)
	.seh_savexmm	%xmm8, 80
	vmovups	%xmm9, 96(%rsp)
	.seh_savexmm	%xmm9, 96
	vmovups	%xmm10, 112(%rsp)
	.seh_savexmm	%xmm10, 112
	.seh_endprologue
	movq	%rcx, %rbp
	cmpq	%rdx, %rcx
	je	.L1091
	leaq	72(%rcx), %rbx
	cmpq	%rbx, %rdx
	je	.L1091
	movq	%rdx, 216(%rsp)
	vpxor	%xmm6, %xmm6, %xmm6
	.p2align 4
	.p2align 3
.L1061:
	movl	8(%rbx), %r13d
	movl	12(%rbx), %r12d
	movq	%rbx, %rsi
	cmpl	%r13d, 8(%rbp)
	jne	.L1093
	cmpl	%r12d, 12(%rbp)
.L1093:
	vmovd	16(%rbx), %xmm4
	vmovd	%r13d, %xmm5
	setl	%al
	movq	(%rbx), %r9
	vpinsrd	$1, 20(%rbx), %xmm4, %xmm0
	vpinsrd	$1, %r12d, %xmm5, %xmm7
	movl	24(%rbx), %r8d
	leaq	72(%rbx), %rdi
	vmovq	32(%rbx), %xmm10
	movl	40(%rbx), %r14d
	vpinsrw	$0, 28(%rbx), %xmm8, %xmm8
	vmovdqu	48(%rbx), %xmm9
	movq	64(%rbx), %r15
	vpunpcklqdq	%xmm0, %xmm7, %xmm7
	testb	%al, %al
	jne	.L1094
	movq	$0, 64(%rbx)
	movl	%r8d, %esi
	movq	%r9, 32(%rsp)
	vmovdqu	%xmm6, 48(%rbx)
	jmp	.L1056
	.p2align 4,,10
	.p2align 3
.L1062:
	movq	-72(%rbx), %r11
	vmovd	%r8d, %xmm3
	vmovd	-56(%rbx), %xmm2
	vpinsrd	$1, -60(%rbx), %xmm3, %xmm1
	vpinsrd	$1, -52(%rbx), %xmm2, %xmm4
	vmovdqu	-24(%rbx), %xmm5
	movl	-48(%rbx), %eax
	movq	%r11, (%rbx)
	movzwl	-44(%rbx), %r8d
	movq	-8(%rbx), %r11
	vpunpcklqdq	%xmm4, %xmm1, %xmm0
	movq	$0, -8(%rbx)
	movq	-40(%rbx), %r9
	movl	-32(%rbx), %r10d
	movl	%eax, 24(%rbx)
	movw	%r8w, 28(%rbx)
	movq	%r9, 32(%rbx)
	movl	%r10d, 40(%rbx)
	movq	%r11, 64(%rbx)
	vmovdqu	%xmm0, 8(%rbx)
	vmovdqu	%xmm5, 48(%rbx)
	vmovdqu	%xmm6, -24(%rbx)
	testq	%rcx, %rcx
	je	.L1057
	call	_ZdlPvy
.L1057:
	subq	$72, %rbx
.L1056:
	movl	-64(%rbx), %r8d
	cmpl	%r8d, %r13d
	jne	.L1092
	cmpl	-60(%rbx), %r12d
.L1092:
	movq	48(%rbx), %rcx
	movq	64(%rbx), %rdx
	setg	%r9b
	subq	%rcx, %rdx
	testb	%r9b, %r9b
	jne	.L1062
	movq	32(%rsp), %r10
	movl	%esi, 24(%rbx)
	vpextrw	$0, %xmm8, 28(%rbx)
	movl	%r14d, 40(%rbx)
	movq	%r10, (%rbx)
	movq	%r15, 64(%rbx)
	vmovdqu	%xmm7, 8(%rbx)
	vmovq	%xmm10, 32(%rbx)
	vmovdqu	%xmm9, 48(%rbx)
	testq	%rcx, %rcx
	je	.L1055
	call	_ZdlPvy
.L1055:
	cmpq	%rdi, 216(%rsp)
	je	.L1091
.L1066:
	movq	%rdi, %rbx
	jmp	.L1061
	.p2align 4,,10
	.p2align 3
.L1094:
	movq	$0, 64(%rbx)
	vmovdqu	%xmm6, 48(%rbx)
	cmpq	%rbx, %rbp
	je	.L1051
	movq	%rbx, %rdx
	subq	%rbp, %rdx
	testb	$8, %dl
	je	.L1089
	movq	-72(%rbx), %rcx
	leaq	-72(%rbx), %rsi
	vmovdqu	48(%rsi), %xmm4
	movq	64(%rsi), %r10
	movl	24(%rsi), %ebx
	vmovdqu	%xmm6, 48(%rsi)
	vmovdqu	8(%rsi), %xmm2
	movzwl	28(%rsi), %r13d
	movq	%rcx, 72(%rsi)
	movq	32(%rsi), %r12
	movq	120(%rsi), %rcx
	movl	%ebx, 96(%rsi)
	movl	40(%rsi), %eax
	movq	136(%rsi), %rdx
	movw	%r13w, 100(%rsi)
	movq	%r12, 104(%rsi)
	movl	%eax, 112(%rsi)
	movq	%r10, 136(%rsi)
	movq	$0, 64(%rsi)
	vmovdqu	%xmm2, 80(%rsi)
	vmovdqu	%xmm4, 120(%rsi)
	testq	%rcx, %rcx
	je	.L1074
	subq	%rcx, %rdx
	movq	%r9, 40(%rsp)
	movl	%r8d, 32(%rsp)
	call	_ZdlPvy
	movq	40(%rsp), %r9
	movl	32(%rsp), %r8d
.L1074:
	cmpq	%rsi, %rbp
	je	.L1051
.L1089:
	movl	%r8d, %r12d
	movq	%r9, %r13
.L1053:
	leaq	-72(%rsi), %rbx
	movl	40(%rbx), %edx
	movq	-72(%rsi), %rsi
	vmovdqu	48(%rbx), %xmm1
	movq	64(%rbx), %rax
	vmovdqu	%xmm6, 48(%rbx)
	vmovdqu	8(%rbx), %xmm3
	movl	24(%rbx), %r8d
	movl	%edx, 112(%rbx)
	movzwl	28(%rbx), %r9d
	movq	32(%rbx), %r11
	movq	%rsi, 72(%rbx)
	movq	120(%rbx), %rcx
	movq	136(%rbx), %rdx
	movl	%r8d, 96(%rbx)
	movw	%r9w, 100(%rbx)
	movq	%r11, 104(%rbx)
	movq	%rax, 136(%rbx)
	movq	$0, 64(%rbx)
	vmovdqu	%xmm3, 80(%rbx)
	vmovdqu	%xmm1, 120(%rbx)
	testq	%rcx, %rcx
	je	.L1052
	subq	%rcx, %rdx
	call	_ZdlPvy
.L1052:
	movq	-72(%rbx), %rcx
	leaq	-72(%rbx), %rsi
	vmovdqu	48(%rsi), %xmm5
	movq	64(%rsi), %r11
	movzwl	28(%rsi), %ebx
	movq	$0, 64(%rsi)
	vmovdqu	8(%rsi), %xmm0
	movl	24(%rsi), %r10d
	movq	%rcx, 72(%rsi)
	movq	32(%rsi), %r8
	movq	120(%rsi), %rcx
	movw	%bx, 100(%rsi)
	movl	40(%rsi), %r9d
	movq	136(%rsi), %rdx
	movl	%r10d, 96(%rsi)
	movq	%r8, 104(%rsi)
	movl	%r9d, 112(%rsi)
	movq	%r11, 136(%rsi)
	vmovdqu	%xmm0, 80(%rsi)
	vmovdqu	%xmm5, 120(%rsi)
	vmovdqu	%xmm6, 48(%rsi)
	testq	%rcx, %rcx
	je	.L1077
	subq	%rcx, %rdx
	call	_ZdlPvy
.L1077:
	cmpq	%rsi, %rbp
	jne	.L1053
	movl	%r12d, %r8d
	movq	%r13, %r9
.L1051:
	movq	48(%rbp), %rcx
	movq	64(%rbp), %rdx
	movq	%r9, 0(%rbp)
	vpextrw	$0, %xmm8, 28(%rbp)
	movl	%r8d, 24(%rbp)
	movl	%r14d, 40(%rbp)
	movq	%r15, 64(%rbp)
	vmovdqu	%xmm7, 8(%rbp)
	vmovq	%xmm10, 32(%rbp)
	vmovdqu	%xmm9, 48(%rbp)
	testq	%rcx, %rcx
	je	.L1055
	subq	%rcx, %rdx
	call	_ZdlPvy
	cmpq	%rdi, 216(%rsp)
	jne	.L1066
.L1091:
	vmovups	48(%rsp), %xmm6
	vmovups	64(%rsp), %xmm7
	vmovups	80(%rsp), %xmm8
	vmovups	96(%rsp), %xmm9
	vmovups	112(%rsp), %xmm10
	addq	$136, %rsp
	popq	%rbx
	popq	%rsi
	popq	%rdi
	popq	%rbp
	popq	%r12
	popq	%r13
	popq	%r14
	popq	%r15
	ret
	.seh_endproc
	.p2align 4
	.def	_ZSt16__merge_adaptiveIN9__gnu_cxx17__normal_iteratorIPN9Stockfish6Search8RootMoveESt6vectorIS4_SaIS4_EEEExS5_NS0_5__ops15_Iter_comp_iterIZNS2_16syzygy_extend_pvERKNS2_10OptionsMapERKNS3_10LimitsTypeERNS2_8PositionERS4_RiEUlRKS4_SN_E_EEEvT_SQ_SQ_T0_SR_T1_T2_.isra.0;	.scl	3;	.type	32;	.endef
	.seh_proc	_ZSt16__merge_adaptiveIN9__gnu_cxx17__normal_iteratorIPN9Stockfish6Search8RootMoveESt6vectorIS4_SaIS4_EEEExS5_NS0_5__ops15_Iter_comp_iterIZNS2_16syzygy_extend_pvERKNS2_10OptionsMapERKNS3_10LimitsTypeERNS2_8PositionERS4_RiEUlRKS4_SN_E_EEEvT_SQ_SQ_T0_SR_T1_T2_.isra.0
_ZSt16__merge_adaptiveIN9__gnu_cxx17__normal_iteratorIPN9Stockfish6Search8RootMoveESt6vectorIS4_SaIS4_EEEExS5_NS0_5__ops15_Iter_comp_iterIZNS2_16syzygy_extend_pvERKNS2_10OptionsMapERKNS3_10LimitsTypeERNS2_8PositionERS4_RiEUlRKS4_SN_E_EEEvT_SQ_SQ_T0_SR_T1_T2_.isra.0:
	pushq	%r15
	.seh_pushreg	%r15
	pushq	%r14
	.seh_pushreg	%r14
	pushq	%r13
	.seh_pushreg	%r13
	pushq	%r12
	.seh_pushreg	%r12
	pushq	%rbp
	.seh_pushreg	%rbp
	pushq	%rdi
	.seh_pushreg	%rdi
	pushq	%rsi
	.seh_pushreg	%rsi
	pushq	%rbx
	.seh_pushreg	%rbx
	subq	$72, %rsp
	.seh_stackalloc	72
	vmovups	%xmm6, 48(%rsp)
	.seh_savexmm	%xmm6, 48
	.seh_endprologue
	movq	184(%rsp), %rdi
	movq	%rcx, %r12
	movq	%rdx, %rbp
	movq	%r8, %r13
	movq	%rdx, %rsi
	movq	%rcx, %rbx
	cmpq	176(%rsp), %r9
	jg	.L1096
	cmpq	%rcx, %rdx
	je	.L1208
	movq	%rcx, %r15
	movq	%rdx, %rcx
	vpxor	%xmm6, %xmm6, %xmm6
	movq	%rdi, %r14
	subq	%r12, %rcx
	testb	$8, %cl
	je	.L1099
	vmovdqu	8(%r12), %xmm4
	movq	(%r12), %r14
	vmovdqu	48(%r12), %xmm5
	movzwl	28(%r12), %r8d
	vmovdqu	%xmm4, 8(%rdi)
	movl	24(%r12), %r15d
	movq	48(%rdi), %rcx
	movq	64(%rdi), %rdx
	movq	%r14, (%rdi)
	movl	%r15d, 24(%rdi)
	movq	32(%r12), %r9
	movw	%r8w, 28(%rdi)
	movq	%r9, 32(%rdi)
	movl	40(%r12), %r11d
	vmovdqu	%xmm5, 48(%rdi)
	movq	64(%r12), %r10
	movl	%r11d, 40(%rdi)
	movq	%r10, 64(%rdi)
	movq	$0, 64(%r12)
	vmovdqu	%xmm6, 48(%r12)
	testq	%rcx, %rcx
	je	.L1152
	subq	%rcx, %rdx
	call	_ZdlPvy
.L1152:
	leaq	72(%r12), %r15
	leaq	72(%rdi), %r14
	cmpq	%rbp, %r15
	je	.L1207
	.p2align 4
	.p2align 3
.L1099:
	vmovdqu	8(%r15), %xmm0
	movq	(%r15), %r12
	vmovdqu	48(%r15), %xmm1
	movzwl	28(%r15), %eax
	vmovdqu	%xmm0, 8(%r14)
	movl	24(%r15), %edx
	movq	%r12, (%r14)
	movl	%edx, 24(%r14)
	movq	32(%r15), %rcx
	movq	64(%r14), %rdx
	movw	%ax, 28(%r14)
	movq	%rcx, 32(%r14)
	movq	48(%r14), %rcx
	movl	40(%r15), %r8d
	vmovdqu	%xmm1, 48(%r14)
	movq	64(%r15), %r9
	movl	%r8d, 40(%r14)
	movq	%r9, 64(%r14)
	movq	$0, 64(%r15)
	vmovdqu	%xmm6, 48(%r15)
	testq	%rcx, %rcx
	je	.L1098
	subq	%rcx, %rdx
	call	_ZdlPvy
.L1098:
	leaq	72(%r15), %r12
	movq	72(%r15), %r15
	vmovdqu	8(%r12), %xmm2
	leaq	72(%r14), %rax
	vmovdqu	48(%r12), %xmm3
	movzwl	28(%r12), %r11d
	movq	%r15, 72(%r14)
	movq	48(%rax), %rcx
	vmovdqu	%xmm2, 8(%rax)
	movl	24(%r12), %r14d
	movw	%r11w, 28(%rax)
	movl	%r14d, 24(%rax)
	movq	32(%r12), %r10
	movq	%r10, 32(%rax)
	movl	40(%r12), %edx
	vmovdqu	%xmm3, 48(%rax)
	movq	64(%r12), %r8
	movl	%edx, 40(%rax)
	movq	64(%rax), %rdx
	movq	%r8, 64(%rax)
	movq	$0, 64(%r12)
	vmovdqu	%xmm6, 48(%r12)
	testq	%rcx, %rcx
	je	.L1155
	subq	%rcx, %rdx
	movq	%rax, 40(%rsp)
	call	_ZdlPvy
	movq	40(%rsp), %rax
.L1155:
	leaq	72(%r12), %r15
	leaq	72(%rax), %r14
	cmpq	%rbp, %r15
	jne	.L1099
.L1207:
	cmpq	%rdi, %r14
	je	.L1208
	vpxor	%xmm6, %xmm6, %xmm6
	jmp	.L1100
	.p2align 4,,10
	.p2align 3
.L1106:
	vmovdqu	8(%rsi), %xmm2
	movq	(%rsi), %r11
	vmovdqu	48(%rsi), %xmm5
	movzwl	28(%rsi), %r8d
	vmovdqu	%xmm2, 8(%rbx)
	movl	24(%rsi), %eax
	movq	%r11, (%rbx)
	movl	%eax, 24(%rbx)
	vmovd	32(%rsi), %xmm3
	movw	%r8w, 28(%rbx)
	vpinsrd	$1, %r10d, %xmm3, %xmm4
	vmovq	%xmm4, 32(%rbx)
	movl	40(%rsi), %r10d
	vmovdqu	%xmm5, 48(%rbx)
	movq	64(%rsi), %r15
	movl	%r10d, 40(%rbx)
	movq	%r15, 64(%rbx)
	movq	$0, 64(%rsi)
	vmovdqu	%xmm6, 48(%rsi)
	testq	%rcx, %rcx
	je	.L1101
	call	_ZdlPvy
.L1101:
	addq	$72, %rsi
	addq	$72, %rbx
	cmpq	%rdi, %r14
	je	.L1208
.L1100:
	cmpq	%rsi, %r13
	je	.L1105
	movq	48(%rbx), %rcx
	movq	64(%rbx), %rdx
	movl	36(%rsi), %r10d
	movl	36(%rdi), %eax
	subq	%rcx, %rdx
	cmpl	%eax, %r10d
	jg	.L1106
	vmovdqu	8(%rdi), %xmm4
	movq	(%rdi), %r8
	vmovdqu	48(%rdi), %xmm1
	movzwl	28(%rdi), %ebp
	vmovdqu	%xmm4, 8(%rbx)
	movl	24(%rdi), %r15d
	movq	%r8, (%rbx)
	movl	%r15d, 24(%rbx)
	vmovd	32(%rdi), %xmm5
	movw	%bp, 28(%rbx)
	vpinsrd	$1, %eax, %xmm5, %xmm0
	vmovq	%xmm0, 32(%rbx)
	movl	40(%rdi), %r9d
	vmovdqu	%xmm1, 48(%rbx)
	movq	64(%rdi), %r12
	movl	%r9d, 40(%rbx)
	movq	%r12, 64(%rbx)
	movq	$0, 64(%rdi)
	vmovdqu	%xmm6, 48(%rdi)
	testq	%rcx, %rcx
	je	.L1103
	call	_ZdlPvy
.L1103:
	addq	$72, %rdi
	addq	$72, %rbx
	cmpq	%rdi, %r14
	jne	.L1100
.L1208:
	vmovups	48(%rsp), %xmm6
	addq	$72, %rsp
	popq	%rbx
	popq	%rsi
	popq	%rdi
	popq	%rbp
	popq	%r12
	popq	%r13
	popq	%r14
	popq	%r15
	ret
	.p2align 4,,10
	.p2align 3
.L1096:
	movq	%r8, %r15
	cmpq	%rdx, %r8
	je	.L1208
	movq	%r8, %rax
	movq	%rdx, %rbx
	vpxor	%xmm6, %xmm6, %xmm6
	movq	%rdi, %rsi
	subq	%rdx, %rax
	testb	$8, %al
	jne	.L1111
	vmovdqu	8(%rbp), %xmm0
	movq	(%rdx), %rdx
	vmovdqu	48(%rbp), %xmm1
	movzwl	28(%rbp), %r8d
	vmovdqu	%xmm0, 8(%rdi)
	movl	24(%rbp), %ecx
	movq	%rdx, (%rdi)
	movq	64(%rdi), %rdx
	movl	%ecx, 24(%rdi)
	movq	32(%rbp), %r9
	movq	48(%rdi), %rcx
	movw	%r8w, 28(%rdi)
	movq	%r9, 32(%rdi)
	movl	40(%rbp), %r10d
	vmovdqu	%xmm1, 48(%rdi)
	movq	64(%rbp), %r11
	movl	%r10d, 40(%rdi)
	movq	%r11, 64(%rdi)
	movq	$0, 64(%rbp)
	vmovdqu	%xmm6, 48(%rbp)
	testq	%rcx, %rcx
	je	.L1167
	subq	%rcx, %rdx
	call	_ZdlPvy
.L1167:
	leaq	72(%rbp), %rbx
	leaq	72(%rdi), %rsi
	jmp	.L1111
	.p2align 4,,10
	.p2align 3
.L1123:
	movq	72(%rbx), %r8
	vmovdqu	8(%rax), %xmm2
	vmovdqu	48(%rax), %xmm3
	movzwl	28(%rax), %r11d
	movq	%r8, 72(%rsi)
	movq	48(%r14), %rcx
	vmovdqu	%xmm2, 8(%r14)
	movl	24(%rax), %r9d
	movw	%r11w, 28(%r14)
	movl	%r9d, 24(%r14)
	movq	32(%rax), %r10
	movq	%r10, 32(%r14)
	movl	40(%rax), %edx
	vmovdqu	%xmm3, 48(%r14)
	movq	64(%rax), %rsi
	movl	%edx, 40(%r14)
	movq	64(%r14), %rdx
	movq	%rsi, 64(%r14)
	movq	$0, 64(%rax)
	vmovdqu	%xmm6, 48(%rax)
	testq	%rcx, %rcx
	je	.L1170
	subq	%rcx, %rdx
	movq	%rax, 40(%rsp)
	call	_ZdlPvy
	movq	40(%rsp), %rax
.L1170:
	leaq	72(%rax), %rbx
	leaq	72(%r14), %rsi
.L1111:
	vmovdqu	8(%rbx), %xmm2
	movq	(%rbx), %r14
	vmovdqu	48(%rbx), %xmm3
	movzwl	28(%rbx), %edx
	vmovdqu	%xmm2, 8(%rsi)
	movl	24(%rbx), %eax
	movq	%r14, (%rsi)
	movl	%eax, 24(%rsi)
	movq	32(%rbx), %rcx
	movw	%dx, 28(%rsi)
	movq	64(%rsi), %rdx
	movq	%rcx, 32(%rsi)
	movq	48(%rsi), %rcx
	movl	40(%rbx), %r8d
	vmovdqu	%xmm3, 48(%rsi)
	movq	64(%rbx), %r9
	movl	%r8d, 40(%rsi)
	movq	%r9, 64(%rsi)
	movq	$0, 64(%rbx)
	vmovdqu	%xmm6, 48(%rbx)
	testq	%rcx, %rcx
	je	.L1110
	subq	%rcx, %rdx
	call	_ZdlPvy
.L1110:
	leaq	72(%rbx), %rax
	leaq	72(%rsi), %r14
	cmpq	%rax, %r13
	jne	.L1123
	cmpq	%r12, %rbp
	je	.L1213
	cmpq	%r14, %rdi
	je	.L1208
	subq	$72, %rbp
	vpxor	%xmm6, %xmm6, %xmm6
	jmp	.L1115
	.p2align 4,,10
	.p2align 3
.L1215:
	vmovdqu	8(%rbp), %xmm2
	movq	0(%rbp), %r9
	vmovdqu	48(%rbp), %xmm5
	movzwl	28(%rbp), %r11d
	vmovdqu	%xmm2, 8(%rbx)
	movl	24(%rbp), %r15d
	movq	%r9, (%rbx)
	movl	%r15d, 24(%rbx)
	vmovd	32(%rbp), %xmm3
	movw	%r11w, 28(%rbx)
	vpinsrd	$1, %r10d, %xmm3, %xmm4
	vmovq	%xmm4, 32(%rbx)
	movl	40(%rbp), %r10d
	vmovdqu	%xmm5, 48(%rbx)
	movq	64(%rbp), %r14
	movl	%r10d, 40(%rbx)
	movq	%r14, 64(%rbx)
	movq	$0, 64(%rbp)
	vmovdqu	%xmm6, 48(%rbp)
	testq	%rcx, %rcx
	je	.L1117
	call	_ZdlPvy
.L1117:
	cmpq	%r12, %rbp
	je	.L1214
	subq	$72, %rbp
.L1121:
	subq	$72, %rbx
.L1115:
	movq	48(%rbx), %rcx
	movq	64(%rbx), %rdx
	movq	%rbx, %r13
	movl	36(%rsi), %r15d
	movl	36(%rbp), %r10d
	subq	%rcx, %rdx
	cmpl	%r10d, %r15d
	jg	.L1215
	vmovdqu	8(%rsi), %xmm4
	movq	(%rsi), %r13
	vmovdqu	48(%rsi), %xmm1
	movzwl	28(%rsi), %r14d
	vmovdqu	%xmm4, 8(%rbx)
	movl	24(%rsi), %r11d
	movq	%r13, (%rbx)
	movl	%r11d, 24(%rbx)
	vmovd	32(%rsi), %xmm5
	movw	%r14w, 28(%rbx)
	vpinsrd	$1, %r15d, %xmm5, %xmm0
	vmovq	%xmm0, 32(%rbx)
	movl	40(%rsi), %eax
	vmovdqu	%xmm1, 48(%rbx)
	movq	64(%rsi), %r8
	movl	%eax, 40(%rbx)
	movq	%r8, 64(%rbx)
	movq	$0, 64(%rsi)
	vmovdqu	%xmm6, 48(%rsi)
	testq	%rcx, %rcx
	je	.L1122
	call	_ZdlPvy
.L1122:
	cmpq	%rsi, %rdi
	je	.L1208
	subq	$72, %rsi
	jmp	.L1121
	.p2align 4,,10
	.p2align 3
.L1105:
	cmpq	%rdi, %r14
	je	.L1208
	movq	%r14, %rbp
	vpxor	%xmm6, %xmm6, %xmm6
	subq	%rdi, %rbp
	testb	$8, %bpl
	jne	.L1199
	.p2align 4
	.p2align 3
.L1109:
	vmovdqu	8(%rdi), %xmm0
	movq	(%rdi), %r10
	vmovdqu	48(%rdi), %xmm1
	movzwl	28(%rdi), %r8d
	vmovdqu	%xmm0, 8(%rbx)
	movl	24(%rdi), %edx
	movq	48(%rbx), %rcx
	movq	%r10, (%rbx)
	movl	%edx, 24(%rbx)
	movq	32(%rdi), %rax
	movq	64(%rbx), %rdx
	movw	%r8w, 28(%rbx)
	movq	%rax, 32(%rbx)
	movl	40(%rdi), %r15d
	vmovdqu	%xmm1, 48(%rbx)
	movq	64(%rdi), %rbp
	movl	%r15d, 40(%rbx)
	movq	%rbp, 64(%rbx)
	movq	$0, 64(%rdi)
	vmovdqu	%xmm6, 48(%rdi)
	testq	%rcx, %rcx
	je	.L1108
	subq	%rcx, %rdx
	call	_ZdlPvy
.L1108:
	leaq	72(%rdi), %rsi
	movq	72(%rdi), %rdi
	leaq	72(%rbx), %r13
	movzwl	28(%rsi), %ecx
	vmovdqu	8(%rsi), %xmm2
	vmovdqu	48(%rsi), %xmm3
	movq	%rdi, 72(%rbx)
	movq	64(%r13), %rdx
	vmovdqu	%xmm2, 8(%r13)
	movl	24(%rsi), %ebx
	movw	%cx, 28(%r13)
	movq	48(%r13), %rcx
	movl	%ebx, 24(%r13)
	movq	32(%rsi), %r9
	movq	%r9, 32(%r13)
	movl	40(%rsi), %r12d
	vmovdqu	%xmm3, 48(%r13)
	movq	64(%rsi), %r11
	movl	%r12d, 40(%r13)
	movq	%r11, 64(%r13)
	movq	$0, 64(%rsi)
	vmovdqu	%xmm6, 48(%rsi)
	testq	%rcx, %rcx
	je	.L1150
	subq	%rcx, %rdx
	call	_ZdlPvy
.L1150:
	leaq	72(%rsi), %rdi
	leaq	72(%r13), %rbx
	cmpq	%rdi, %r14
	jne	.L1109
	jmp	.L1208
	.p2align 4,,10
	.p2align 3
.L1199:
	vmovdqu	8(%rdi), %xmm4
	movq	(%rdi), %r13
	movzwl	28(%rdi), %ecx
	vmovdqu	48(%rdi), %xmm5
	vmovdqu	%xmm4, 8(%rbx)
	movl	24(%rdi), %esi
	movq	64(%rbx), %rdx
	movw	%cx, 28(%rbx)
	movq	48(%rbx), %rcx
	movl	%esi, 24(%rbx)
	movq	32(%rdi), %r9
	movq	%r13, (%rbx)
	movq	%r9, 32(%rbx)
	movl	40(%rdi), %r12d
	vmovdqu	%xmm5, 48(%rbx)
	movq	64(%rdi), %r11
	movl	%r12d, 40(%rbx)
	movq	%r11, 64(%rbx)
	movq	$0, 64(%rdi)
	vmovdqu	%xmm6, 48(%rdi)
	testq	%rcx, %rcx
	je	.L1147
	subq	%rcx, %rdx
	call	_ZdlPvy
.L1147:
	addq	$72, %rdi
	addq	$72, %rbx
	cmpq	%rdi, %r14
	jne	.L1109
	jmp	.L1208
	.p2align 4,,10
	.p2align 3
.L1214:
	leaq	72(%rsi), %r15
	cmpq	%r15, %rdi
	je	.L1208
	movq	%r15, %rdx
	vpxor	%xmm6, %xmm6, %xmm6
	subq	%rdi, %rdx
	testb	$8, %dl
	je	.L1120
	movq	%rsi, %r15
	movq	(%rsi), %rsi
	leaq	-72(%rbx), %r13
	movq	%rsi, 0(%r13)
	jmp	.L1212
	.p2align 4,,10
	.p2align 3
.L1120:
	movq	-72(%r15), %r11
	leaq	-72(%r15), %r14
	leaq	-72(%r13), %rbp
	movq	48(%rbp), %rcx
	vmovdqu	8(%r14), %xmm2
	vmovdqu	48(%r14), %xmm3
	movq	%r11, -72(%r13)
	movzwl	28(%r14), %r12d
	vmovdqu	%xmm2, 8(%rbp)
	movl	24(%r14), %r10d
	movw	%r12w, 28(%rbp)
	movl	%r10d, 24(%rbp)
	movq	32(%r14), %rdx
	movq	%rdx, 32(%rbp)
	movl	40(%r14), %r15d
	vmovdqu	%xmm3, 48(%rbp)
	movq	64(%r14), %r13
	movq	64(%rbp), %rdx
	movl	%r15d, 40(%rbp)
	movq	%r13, 64(%rbp)
	movq	$0, 64(%r14)
	vmovdqu	%xmm6, 48(%r14)
	testq	%rcx, %rcx
	je	.L1119
	subq	%rcx, %rdx
	call	_ZdlPvy
.L1119:
	movq	-72(%r14), %rsi
	leaq	-72(%r14), %r15
	leaq	-72(%rbp), %r13
	movq	%rsi, -72(%rbp)
.L1212:
	vmovdqu	8(%r15), %xmm0
	movzwl	28(%r15), %ecx
	vmovdqu	48(%r15), %xmm1
	movq	64(%r13), %rdx
	vmovdqu	%xmm0, 8(%r13)
	movl	24(%r15), %ebx
	movw	%cx, 28(%r13)
	movq	48(%r13), %rcx
	movl	%ebx, 24(%r13)
	movq	32(%r15), %rax
	movq	%rax, 32(%r13)
	movl	40(%r15), %r8d
	vmovdqu	%xmm1, 48(%r13)
	movq	64(%r15), %r9
	movl	%r8d, 40(%r13)
	movq	%r9, 64(%r13)
	movq	$0, 64(%r15)
	vmovdqu	%xmm6, 48(%r15)
	testq	%rcx, %rcx
	je	.L1165
	subq	%rcx, %rdx
	call	_ZdlPvy
.L1165:
	cmpq	%r15, %rdi
	jne	.L1120
	jmp	.L1208
	.p2align 4,,10
	.p2align 3
.L1213:
	cmpq	%r14, %rdi
	je	.L1208
	movq	%r14, %rcx
	vpxor	%xmm6, %xmm6, %xmm6
	subq	%rdi, %rcx
	testb	$8, %cl
	jne	.L1203
	.p2align 4
	.p2align 3
.L1114:
	movq	-72(%r14), %r10
	vmovdqu	-64(%r14), %xmm0
	leaq	-72(%r15), %r13
	leaq	-72(%r14), %r12
	vmovdqu	48(%r12), %xmm1
	movzwl	28(%r12), %esi
	movq	%r10, -72(%r15)
	vmovdqu	%xmm0, 8(%r13)
	movl	24(%r12), %edx
	movw	%si, 28(%r13)
	movl	%edx, 24(%r13)
	movq	32(%r12), %rcx
	movq	64(%r13), %rdx
	movq	%rcx, 32(%r13)
	movq	48(%r13), %rcx
	movl	40(%r12), %r14d
	vmovdqu	%xmm1, 48(%r13)
	movq	64(%r12), %r15
	movl	%r14d, 40(%r13)
	movq	%r15, 64(%r13)
	movq	$0, 64(%r12)
	vmovdqu	%xmm6, 48(%r12)
	testq	%rcx, %rcx
	je	.L1113
	subq	%rcx, %rdx
	call	_ZdlPvy
.L1113:
	movq	-72(%r12), %rbx
	leaq	-72(%r12), %r14
	leaq	-72(%r13), %r15
	movq	%rbx, -72(%r13)
.L1210:
	vmovdqu	8(%r14), %xmm4
	vmovdqu	48(%r14), %xmm5
	movzwl	28(%r14), %r8d
	movq	48(%r15), %rcx
	vmovdqu	%xmm4, 8(%r15)
	movl	24(%r14), %eax
	movq	64(%r15), %rdx
	movw	%r8w, 28(%r15)
	movl	%eax, 24(%r15)
	movq	32(%r14), %r9
	movq	%r9, 32(%r15)
	movl	40(%r14), %ebp
	vmovdqu	%xmm5, 48(%r15)
	movq	64(%r14), %r11
	movl	%ebp, 40(%r15)
	movq	%r11, 64(%r15)
	movq	$0, 64(%r14)
	vmovdqu	%xmm6, 48(%r14)
	testq	%rcx, %rcx
	je	.L1160
	subq	%rcx, %rdx
	call	_ZdlPvy
.L1160:
	cmpq	%r14, %rdi
	jne	.L1114
	jmp	.L1208
.L1203:
	movq	%rbx, %r15
	movq	(%rsi), %rbx
	movq	%rsi, %r14
	movq	%rbx, (%r15)
	jmp	.L1210
	.seh_endproc
	.p2align 4
	.def	_ZSt16__insertion_sortIN9__gnu_cxx17__normal_iteratorIPN9Stockfish6Search8RootMoveESt6vectorIS4_SaIS4_EEEENS0_5__ops15_Iter_comp_iterIZNS2_16syzygy_extend_pvERKNS2_10OptionsMapERKNS3_10LimitsTypeERNS2_8PositionERS4_RiEUlRKS4_SN_E_EEEvT_SQ_T0_.isra.0;	.scl	3;	.type	32;	.endef
	.seh_proc	_ZSt16__insertion_sortIN9__gnu_cxx17__normal_iteratorIPN9Stockfish6Search8RootMoveESt6vectorIS4_SaIS4_EEEENS0_5__ops15_Iter_comp_iterIZNS2_16syzygy_extend_pvERKNS2_10OptionsMapERKNS3_10LimitsTypeERNS2_8PositionERS4_RiEUlRKS4_SN_E_EEEvT_SQ_T0_.isra.0
_ZSt16__insertion_sortIN9__gnu_cxx17__normal_iteratorIPN9Stockfish6Search8RootMoveESt6vectorIS4_SaIS4_EEEENS0_5__ops15_Iter_comp_iterIZNS2_16syzygy_extend_pvERKNS2_10OptionsMapERKNS3_10LimitsTypeERNS2_8PositionERS4_RiEUlRKS4_SN_E_EEEvT_SQ_T0_.isra.0:
	pushq	%r15
	.seh_pushreg	%r15
	pushq	%r14
	.seh_pushreg	%r14
	pushq	%r13
	.seh_pushreg	%r13
	pushq	%r12
	.seh_pushreg	%r12
	pushq	%rbp
	.seh_pushreg	%rbp
	pushq	%rdi
	.seh_pushreg	%rdi
	pushq	%rsi
	.seh_pushreg	%rsi
	pushq	%rbx
	.seh_pushreg	%rbx
	subq	$136, %rsp
	.seh_stackalloc	136
	vmovups	%xmm6, 48(%rsp)
	.seh_savexmm	%xmm6, 48
	vmovups	%xmm7, 64(%rsp)
	.seh_savexmm	%xmm7, 64
	vmovups	%xmm8, 80(%rsp)
	.seh_savexmm	%xmm8, 80
	vmovups	%xmm9, 96(%rsp)
	.seh_savexmm	%xmm9, 96
	vmovups	%xmm10, 112(%rsp)
	.seh_savexmm	%xmm10, 112
	.seh_endprologue
	movq	%rdx, 216(%rsp)
	movq	%rcx, %rsi
	cmpq	%rdx, %rcx
	je	.L1250
	leaq	72(%rcx), %rdi
	cmpq	%rdi, %rdx
	je	.L1250
	vpxor	%xmm6, %xmm6, %xmm6
	.p2align 4
	.p2align 3
.L1231:
	movq	%rdi, %rbx
	vmovq	32(%rdi), %xmm7
	addq	$72, %rdi
	movq	(%rbx), %rax
	movzwl	28(%rbx), %edx
	vpextrd	$1, %xmm7, %ebp
	cmpl	%ebp, 36(%rsi)
	vmovdqu	48(%rbx), %xmm8
	movq	%rax, 40(%rsp)
	movq	64(%rbx), %r14
	vmovd	%edx, %xmm10
	vmovdqu	8(%rbx), %xmm9
	movl	24(%rbx), %r12d
	vmovdqu	%xmm6, 48(%rbx)
	movq	$0, 64(%rbx)
	movl	40(%rbx), %r13d
	jl	.L1254
	movl	-36(%rbx), %edx
	cmpl	%ebp, %edx
	jge	.L1225
	subq	$72, %rbx
	.p2align 4
	.p2align 3
.L1229:
	vmovd	32(%rbx), %xmm1
	vmovdqu	48(%rbx), %xmm3
	movq	%rbx, %r15
	vmovdqu	%xmm6, 48(%rbx)
	movq	64(%rbx), %rax
	movq	(%rbx), %r8
	movq	$0, 64(%rbx)
	vmovdqu	8(%rbx), %xmm0
	movl	24(%rbx), %r9d
	vpinsrd	$1, %edx, %xmm1, %xmm2
	movzwl	28(%rbx), %r10d
	movl	40(%rbx), %r11d
	movq	%r8, 72(%rbx)
	movq	120(%rbx), %rcx
	movq	136(%rbx), %rdx
	movl	%r9d, 96(%rbx)
	movw	%r10w, 100(%rbx)
	movl	%r11d, 112(%rbx)
	movq	%rax, 136(%rbx)
	vmovdqu	%xmm0, 80(%rbx)
	vmovq	%xmm2, 104(%rbx)
	vmovdqu	%xmm3, 120(%rbx)
	testq	%rcx, %rcx
	je	.L1226
	subq	%rcx, %rdx
	subq	$72, %rbx
	call	_ZdlPvy
	movl	36(%rbx), %edx
	cmpl	%edx, %ebp
	jg	.L1229
.L1228:
	movq	48(%r15), %rcx
	movq	40(%rsp), %rbx
	movl	%r12d, 24(%r15)
	vpextrw	$0, %xmm10, 28(%r15)
	movq	64(%r15), %rdx
	movl	%r13d, 40(%r15)
	movq	%rbx, (%r15)
	movq	%r14, 64(%r15)
	vmovdqu	%xmm9, 8(%r15)
	vmovq	%xmm7, 32(%r15)
	vmovdqu	%xmm8, 48(%r15)
	testq	%rcx, %rcx
	je	.L1224
.L1251:
	subq	%rcx, %rdx
	call	_ZdlPvy
.L1224:
	cmpq	%rdi, 216(%rsp)
	jne	.L1231
.L1250:
	vmovups	48(%rsp), %xmm6
	vmovups	64(%rsp), %xmm7
	vmovups	80(%rsp), %xmm8
	vmovups	96(%rsp), %xmm9
	vmovups	112(%rsp), %xmm10
	addq	$136, %rsp
	popq	%rbx
	popq	%rsi
	popq	%rdi
	popq	%rbp
	popq	%r12
	popq	%r13
	popq	%r14
	popq	%r15
	ret
	.p2align 4,,10
	.p2align 3
.L1226:
	movl	-36(%rbx), %edx
	subq	$72, %rbx
	cmpl	%edx, %ebp
	jg	.L1229
	jmp	.L1228
	.p2align 4,,10
	.p2align 3
.L1254:
	cmpq	%rbx, %rsi
	je	.L1220
	movq	%rbx, %rbp
	subq	%rsi, %rbp
	testb	$8, %bpl
	je	.L1222
	subq	$72, %rbx
	movq	(%rbx), %rcx
	jmp	.L1253
	.p2align 4,,10
	.p2align 3
.L1222:
	movzwl	-44(%rbx), %ecx
	leaq	-72(%rbx), %rbp
	movq	-72(%rbx), %rdx
	vmovdqu	48(%rbp), %xmm1
	movq	64(%rbp), %r9
	vmovdqu	%xmm6, 48(%rbp)
	movl	24(%rbp), %ebx
	vmovdqu	8(%rbp), %xmm0
	movw	%cx, 100(%rbp)
	movq	32(%rbp), %r15
	movq	120(%rbp), %rcx
	movq	%rdx, 72(%rbp)
	movl	40(%rbp), %r8d
	movq	136(%rbp), %rdx
	movl	%ebx, 96(%rbp)
	movq	%r15, 104(%rbp)
	movl	%r8d, 112(%rbp)
	movq	%r9, 136(%rbp)
	movq	$0, 64(%rbp)
	vmovdqu	%xmm0, 80(%rbp)
	vmovdqu	%xmm1, 120(%rbp)
	testq	%rcx, %rcx
	je	.L1221
	subq	%rcx, %rdx
	call	_ZdlPvy
.L1221:
	movq	-72(%rbp), %rcx
	leaq	-72(%rbp), %rbx
.L1253:
	vmovdqu	48(%rbx), %xmm5
	movq	64(%rbx), %r11
	movq	%rcx, 72(%rbx)
	vmovdqu	8(%rbx), %xmm4
	movl	24(%rbx), %r15d
	movq	$0, 64(%rbx)
	movzwl	28(%rbx), %r8d
	movq	32(%rbx), %r9
	vmovdqu	%xmm6, 48(%rbx)
	movl	40(%rbx), %r10d
	movq	120(%rbx), %rcx
	movl	%r15d, 96(%rbx)
	movq	136(%rbx), %rdx
	movw	%r8w, 100(%rbx)
	movq	%r9, 104(%rbx)
	movl	%r10d, 112(%rbx)
	movq	%r11, 136(%rbx)
	vmovdqu	%xmm4, 80(%rbx)
	vmovdqu	%xmm5, 120(%rbx)
	testq	%rcx, %rcx
	je	.L1241
	subq	%rcx, %rdx
	call	_ZdlPvy
.L1241:
	cmpq	%rbx, %rsi
	jne	.L1222
.L1220:
	movq	40(%rsp), %rax
	movq	48(%rsi), %rcx
	movl	%r12d, 24(%rsi)
	vpextrw	$0, %xmm10, 28(%rsi)
	movq	64(%rsi), %rdx
	movl	%r13d, 40(%rsi)
	movq	%rax, (%rsi)
	movq	%r14, 64(%rsi)
	vmovdqu	%xmm9, 8(%rsi)
	vmovq	%xmm7, 32(%rsi)
	vmovdqu	%xmm8, 48(%rsi)
	testq	%rcx, %rcx
	jne	.L1251
	jmp	.L1224
	.p2align 4,,10
	.p2align 3
.L1225:
	movq	40(%rsp), %rcx
	movl	%r12d, 24(%rbx)
	movl	%r13d, 40(%rbx)
	movq	%rcx, (%rbx)
	movq	%r14, 64(%rbx)
	vmovq	%xmm7, 32(%rbx)
	vmovdqu	%xmm8, 48(%rbx)
	jmp	.L1224
	.seh_endproc
	.p2align 4
	.def	_ZSt24__merge_sort_with_bufferIN9__gnu_cxx17__normal_iteratorIPN9Stockfish6Search8RootMoveESt6vectorIS4_SaIS4_EEEES5_NS0_5__ops15_Iter_comp_iterIZNS2_16syzygy_extend_pvERKNS2_10OptionsMapERKNS3_10LimitsTypeERNS2_8PositionERS4_RiEUlRKS4_SN_E_EEEvT_SQ_T0_T1_.isra.0;	.scl	3;	.type	32;	.endef
	.seh_proc	_ZSt24__merge_sort_with_bufferIN9__gnu_cxx17__normal_iteratorIPN9Stockfish6Search8RootMoveESt6vectorIS4_SaIS4_EEEES5_NS0_5__ops15_Iter_comp_iterIZNS2_16syzygy_extend_pvERKNS2_10OptionsMapERKNS3_10LimitsTypeERNS2_8PositionERS4_RiEUlRKS4_SN_E_EEEvT_SQ_T0_T1_.isra.0
_ZSt24__merge_sort_with_bufferIN9__gnu_cxx17__normal_iteratorIPN9Stockfish6Search8RootMoveESt6vectorIS4_SaIS4_EEEES5_NS0_5__ops15_Iter_comp_iterIZNS2_16syzygy_extend_pvERKNS2_10OptionsMapERKNS3_10LimitsTypeERNS2_8PositionERS4_RiEUlRKS4_SN_E_EEEvT_SQ_T0_T1_.isra.0:
	pushq	%r15
	.seh_pushreg	%r15
	pushq	%r14
	.seh_pushreg	%r14
	pushq	%r13
	.seh_pushreg	%r13
	pushq	%r12
	.seh_pushreg	%r12
	pushq	%rbp
	.seh_pushreg	%rbp
	pushq	%rdi
	.seh_pushreg	%rdi
	pushq	%rsi
	.seh_pushreg	%rsi
	pushq	%rbx
	.seh_pushreg	%rbx
	subq	$120, %rsp
	.seh_stackalloc	120
	vmovups	%xmm6, 96(%rsp)
	.seh_savexmm	%xmm6, 96
	.seh_endprologue
	movq	%rdx, %r12
	movq	%r8, 72(%rsp)
	movq	%rcx, %rbp
	movq	%rdx, %rsi
	subq	%rcx, %r12
	movq	%rdx, %r14
	cmpq	$432, %r12
	jle	.L1256
	leaq	-433(%r12), %rdx
	leaq	504(%rcx), %rbx
	movabsq	$2342443691899625603, %rax
	shrq	$3, %rdx
	subq	%rbx, %rsi
	mulq	%rdx
	shrq	$3, %rdx
	movq	%rdx, %rdi
	movq	%rbx, %rdx
	call	_ZSt16__insertion_sortIN9__gnu_cxx17__normal_iteratorIPN9Stockfish6Search8RootMoveESt6vectorIS4_SaIS4_EEEENS0_5__ops15_Iter_comp_iterIZNS2_16syzygy_extend_pvERKNS2_10OptionsMapERKNS3_10LimitsTypeERNS2_8PositionERS4_RiEUlRKS4_SN_E_EEEvT_SQ_T0_.isra.0
	andl	$7, %edi
	cmpq	$432, %rsi
	jle	.L1520
	testq	%rdi, %rdi
	je	.L1257
	cmpq	$1, %rdi
	je	.L1459
	cmpq	$2, %rdi
	je	.L1460
	cmpq	$3, %rdi
	je	.L1461
	cmpq	$4, %rdi
	je	.L1462
	cmpq	$5, %rdi
	je	.L1463
	cmpq	$6, %rdi
	je	.L1464
	movq	%rbx, %rcx
	leaq	1008(%rbp), %rbx
	movq	%rbx, %rdx
	call	_ZSt16__insertion_sortIN9__gnu_cxx17__normal_iteratorIPN9Stockfish6Search8RootMoveESt6vectorIS4_SaIS4_EEEENS0_5__ops15_Iter_comp_iterIZNS2_16syzygy_extend_pvERKNS2_10OptionsMapERKNS3_10LimitsTypeERNS2_8PositionERS4_RiEUlRKS4_SN_E_EEEvT_SQ_T0_.isra.0
.L1464:
	movq	%rbx, %rcx
	addq	$504, %rbx
	movq	%rbx, %rdx
	call	_ZSt16__insertion_sortIN9__gnu_cxx17__normal_iteratorIPN9Stockfish6Search8RootMoveESt6vectorIS4_SaIS4_EEEENS0_5__ops15_Iter_comp_iterIZNS2_16syzygy_extend_pvERKNS2_10OptionsMapERKNS3_10LimitsTypeERNS2_8PositionERS4_RiEUlRKS4_SN_E_EEEvT_SQ_T0_.isra.0
.L1463:
	movq	%rbx, %rcx
	addq	$504, %rbx
	movq	%rbx, %rdx
	call	_ZSt16__insertion_sortIN9__gnu_cxx17__normal_iteratorIPN9Stockfish6Search8RootMoveESt6vectorIS4_SaIS4_EEEENS0_5__ops15_Iter_comp_iterIZNS2_16syzygy_extend_pvERKNS2_10OptionsMapERKNS3_10LimitsTypeERNS2_8PositionERS4_RiEUlRKS4_SN_E_EEEvT_SQ_T0_.isra.0
.L1462:
	movq	%rbx, %rcx
	addq	$504, %rbx
	movq	%rbx, %rdx
	call	_ZSt16__insertion_sortIN9__gnu_cxx17__normal_iteratorIPN9Stockfish6Search8RootMoveESt6vectorIS4_SaIS4_EEEENS0_5__ops15_Iter_comp_iterIZNS2_16syzygy_extend_pvERKNS2_10OptionsMapERKNS3_10LimitsTypeERNS2_8PositionERS4_RiEUlRKS4_SN_E_EEEvT_SQ_T0_.isra.0
.L1461:
	movq	%rbx, %rcx
	addq	$504, %rbx
	movq	%rbx, %rdx
	call	_ZSt16__insertion_sortIN9__gnu_cxx17__normal_iteratorIPN9Stockfish6Search8RootMoveESt6vectorIS4_SaIS4_EEEENS0_5__ops15_Iter_comp_iterIZNS2_16syzygy_extend_pvERKNS2_10OptionsMapERKNS3_10LimitsTypeERNS2_8PositionERS4_RiEUlRKS4_SN_E_EEEvT_SQ_T0_.isra.0
.L1460:
	movq	%rbx, %rcx
	addq	$504, %rbx
	movq	%rbx, %rdx
	call	_ZSt16__insertion_sortIN9__gnu_cxx17__normal_iteratorIPN9Stockfish6Search8RootMoveESt6vectorIS4_SaIS4_EEEENS0_5__ops15_Iter_comp_iterIZNS2_16syzygy_extend_pvERKNS2_10OptionsMapERKNS3_10LimitsTypeERNS2_8PositionERS4_RiEUlRKS4_SN_E_EEEvT_SQ_T0_.isra.0
.L1459:
	movq	%rbx, %rcx
	addq	$504, %rbx
.L1560:
	movq	%rbx, %rdx
	call	_ZSt16__insertion_sortIN9__gnu_cxx17__normal_iteratorIPN9Stockfish6Search8RootMoveESt6vectorIS4_SaIS4_EEEENS0_5__ops15_Iter_comp_iterIZNS2_16syzygy_extend_pvERKNS2_10OptionsMapERKNS3_10LimitsTypeERNS2_8PositionERS4_RiEUlRKS4_SN_E_EEEvT_SQ_T0_.isra.0
	movq	%r14, %rcx
	subq	%rbx, %rcx
	cmpq	$432, %rcx
	jle	.L1520
.L1257:
	leaq	504(%rbx), %rdx
	movq	%rbx, %rcx
	call	_ZSt16__insertion_sortIN9__gnu_cxx17__normal_iteratorIPN9Stockfish6Search8RootMoveESt6vectorIS4_SaIS4_EEEENS0_5__ops15_Iter_comp_iterIZNS2_16syzygy_extend_pvERKNS2_10OptionsMapERKNS3_10LimitsTypeERNS2_8PositionERS4_RiEUlRKS4_SN_E_EEEvT_SQ_T0_.isra.0
	leaq	1008(%rbx), %rdx
	leaq	504(%rbx), %rcx
	call	_ZSt16__insertion_sortIN9__gnu_cxx17__normal_iteratorIPN9Stockfish6Search8RootMoveESt6vectorIS4_SaIS4_EEEENS0_5__ops15_Iter_comp_iterIZNS2_16syzygy_extend_pvERKNS2_10OptionsMapERKNS3_10LimitsTypeERNS2_8PositionERS4_RiEUlRKS4_SN_E_EEEvT_SQ_T0_.isra.0
	leaq	1512(%rbx), %rdx
	leaq	1008(%rbx), %rcx
	call	_ZSt16__insertion_sortIN9__gnu_cxx17__normal_iteratorIPN9Stockfish6Search8RootMoveESt6vectorIS4_SaIS4_EEEENS0_5__ops15_Iter_comp_iterIZNS2_16syzygy_extend_pvERKNS2_10OptionsMapERKNS3_10LimitsTypeERNS2_8PositionERS4_RiEUlRKS4_SN_E_EEEvT_SQ_T0_.isra.0
	leaq	2016(%rbx), %rdx
	leaq	1512(%rbx), %rcx
	call	_ZSt16__insertion_sortIN9__gnu_cxx17__normal_iteratorIPN9Stockfish6Search8RootMoveESt6vectorIS4_SaIS4_EEEENS0_5__ops15_Iter_comp_iterIZNS2_16syzygy_extend_pvERKNS2_10OptionsMapERKNS3_10LimitsTypeERNS2_8PositionERS4_RiEUlRKS4_SN_E_EEEvT_SQ_T0_.isra.0
	leaq	2520(%rbx), %rdx
	leaq	2016(%rbx), %rcx
	call	_ZSt16__insertion_sortIN9__gnu_cxx17__normal_iteratorIPN9Stockfish6Search8RootMoveESt6vectorIS4_SaIS4_EEEENS0_5__ops15_Iter_comp_iterIZNS2_16syzygy_extend_pvERKNS2_10OptionsMapERKNS3_10LimitsTypeERNS2_8PositionERS4_RiEUlRKS4_SN_E_EEEvT_SQ_T0_.isra.0
	leaq	3024(%rbx), %rdx
	leaq	2520(%rbx), %rcx
	call	_ZSt16__insertion_sortIN9__gnu_cxx17__normal_iteratorIPN9Stockfish6Search8RootMoveESt6vectorIS4_SaIS4_EEEENS0_5__ops15_Iter_comp_iterIZNS2_16syzygy_extend_pvERKNS2_10OptionsMapERKNS3_10LimitsTypeERNS2_8PositionERS4_RiEUlRKS4_SN_E_EEEvT_SQ_T0_.isra.0
	leaq	3024(%rbx), %rcx
	leaq	3528(%rbx), %rdx
	call	_ZSt16__insertion_sortIN9__gnu_cxx17__normal_iteratorIPN9Stockfish6Search8RootMoveESt6vectorIS4_SaIS4_EEEENS0_5__ops15_Iter_comp_iterIZNS2_16syzygy_extend_pvERKNS2_10OptionsMapERKNS3_10LimitsTypeERNS2_8PositionERS4_RiEUlRKS4_SN_E_EEEvT_SQ_T0_.isra.0
	leaq	3528(%rbx), %rcx
	addq	$4032, %rbx
	jmp	.L1560
.L1520:
	movq	%r14, %rdx
	movq	%rbx, %rcx
	call	_ZSt16__insertion_sortIN9__gnu_cxx17__normal_iteratorIPN9Stockfish6Search8RootMoveESt6vectorIS4_SaIS4_EEEENS0_5__ops15_Iter_comp_iterIZNS2_16syzygy_extend_pvERKNS2_10OptionsMapERKNS3_10LimitsTypeERNS2_8PositionERS4_RiEUlRKS4_SN_E_EEEvT_SQ_T0_.isra.0
	cmpq	$504, %r12
	jle	.L1559
	movq	%r12, %r8
	movq	72(%rsp), %r10
	movabsq	$-8198552921648689607, %r9
	movq	$7, 32(%rsp)
	sarq	$3, %r8
	vpxor	%xmm6, %xmm6, %xmm6
	imulq	%r9, %r8
	leaq	(%r10,%r12), %r13
	movq	%rbp, %r12
	movq	%r14, %rbp
	movq	%r8, 64(%rsp)
	.p2align 4
	.p2align 3
.L1317:
	movq	32(%rsp), %r11
	leaq	(%r11,%r11), %r15
	movq	%r15, 40(%rsp)
	cmpq	%r15, 64(%rsp)
	jl	.L1321
	movq	%r11, %rdi
	leaq	(%r11,%r11,8), %r14
	movq	72(%rsp), %rbx
	movq	%r13, 80(%rsp)
	salq	$4, %rdi
	salq	$3, %r14
	movq	%r12, 88(%rsp)
	movq	%r12, %r13
	addq	%r15, %rdi
	salq	$3, %rdi
	cmpq	%r14, %rdi
	leaq	(%r12,%r14), %r14
	setne	48(%rsp)
	movzbl	48(%rsp), %eax
	movl	%eax, %r12d
	.p2align 4
	.p2align 3
.L1276:
	movq	%r13, %rsi
	addq	%rdi, %r13
	movq	%r13, %rcx
	subq	%rdi, %rcx
	cmpq	%rcx, %r14
	je	.L1326
	movq	%r14, %r15
	testb	%r12b, %r12b
	jne	.L1261
	jmp	.L1326
	.p2align 4,,10
	.p2align 3
.L1270:
	vmovdqu	8(%r15), %xmm4
	movq	(%r15), %r10
	vmovdqu	48(%r15), %xmm2
	movzwl	28(%r15), %eax
	vmovdqu	%xmm4, 8(%rbx)
	movl	24(%r15), %r11d
	movq	%r10, (%rbx)
	movl	%r11d, 24(%rbx)
	vmovd	32(%r15), %xmm5
	movw	%ax, 28(%rbx)
	vpinsrd	$1, %r8d, %xmm5, %xmm0
	vmovq	%xmm0, 32(%rbx)
	movl	40(%r15), %r8d
	vmovdqu	%xmm2, 48(%rbx)
	movq	64(%r15), %r9
	movl	%r8d, 40(%rbx)
	movq	%r9, 64(%rbx)
	movq	$0, 64(%r15)
	vmovdqu	%xmm6, 48(%r15)
	testq	%rcx, %rcx
	je	.L1264
	call	_ZdlPvy
.L1264:
	addq	$72, %r15
	addq	$72, %rbx
	cmpq	%r14, %rsi
	je	.L1263
.L1561:
	cmpq	%r15, %r13
	je	.L1263
.L1261:
	movq	48(%rbx), %rcx
	movq	64(%rbx), %rdx
	movl	36(%r15), %r8d
	movl	36(%rsi), %r9d
	subq	%rcx, %rdx
	cmpl	%r9d, %r8d
	jg	.L1270
	vmovdqu	8(%rsi), %xmm0
	movq	(%rsi), %r10
	vmovdqu	48(%rsi), %xmm3
	movzwl	28(%rsi), %eax
	vmovdqu	%xmm0, 8(%rbx)
	movl	24(%rsi), %r11d
	movq	%r10, (%rbx)
	movl	%r11d, 24(%rbx)
	vmovd	32(%rsi), %xmm2
	movw	%ax, 28(%rbx)
	vpinsrd	$1, %r9d, %xmm2, %xmm1
	vmovq	%xmm1, 32(%rbx)
	movl	40(%rsi), %r8d
	vmovdqu	%xmm3, 48(%rbx)
	movq	64(%rsi), %r9
	movl	%r8d, 40(%rbx)
	movq	%r9, 64(%rbx)
	movq	$0, 64(%rsi)
	vmovdqu	%xmm6, 48(%rsi)
	testq	%rcx, %rcx
	je	.L1266
	call	_ZdlPvy
.L1266:
	addq	$72, %rsi
	addq	$72, %rbx
	cmpq	%r14, %rsi
	jne	.L1561
.L1263:
	cmpq	%rsi, %r14
	je	.L1269
	movq	%r14, %rdx
	subq	%rsi, %rdx
	andl	$8, %edx
	je	.L1556
	vmovdqu	8(%rsi), %xmm1
	movq	(%rsi), %rcx
	vmovdqu	48(%rsi), %xmm3
	movzwl	28(%rsi), %r11d
	vmovdqu	%xmm1, 8(%rbx)
	movl	24(%rsi), %r10d
	movq	64(%rbx), %rdx
	movq	%rcx, (%rbx)
	movq	48(%rbx), %rcx
	movl	%r10d, 24(%rbx)
	movq	32(%rsi), %rax
	movw	%r11w, 28(%rbx)
	movq	%rax, 32(%rbx)
	movl	40(%rsi), %r8d
	vmovdqu	%xmm3, 48(%rbx)
	movq	64(%rsi), %r9
	movl	%r8d, 40(%rbx)
	movq	%r9, 64(%rbx)
	movq	$0, 64(%rsi)
	vmovdqu	%xmm6, 48(%rsi)
	testq	%rcx, %rcx
	je	.L1431
	subq	%rcx, %rdx
	call	_ZdlPvy
.L1431:
	addq	$72, %rsi
	addq	$72, %rbx
	cmpq	%rsi, %r14
	je	.L1269
.L1556:
	movq	%rdi, 48(%rsp)
	movq	%rbp, 56(%rsp)
.L1268:
	vmovdqu	8(%rsi), %xmm4
	movq	(%rsi), %rbp
	vmovdqu	48(%rsi), %xmm5
	movzwl	28(%rsi), %edx
	vmovdqu	%xmm4, 8(%rbx)
	movl	24(%rsi), %edi
	movq	%rbp, (%rbx)
	movl	%edi, 24(%rbx)
	movq	32(%rsi), %rcx
	movw	%dx, 28(%rbx)
	movq	64(%rbx), %rdx
	movq	%rcx, 32(%rbx)
	movq	48(%rbx), %rcx
	movl	40(%rsi), %r10d
	vmovdqu	%xmm5, 48(%rbx)
	movq	64(%rsi), %r11
	movl	%r10d, 40(%rbx)
	movq	%r11, 64(%rbx)
	movq	$0, 64(%rsi)
	vmovdqu	%xmm6, 48(%rsi)
	testq	%rcx, %rcx
	je	.L1272
	subq	%rcx, %rdx
	call	_ZdlPvy
.L1272:
	leaq	72(%rsi), %rdi
	movq	72(%rsi), %rsi
	leaq	72(%rbx), %rbp
	movzwl	28(%rdi), %eax
	vmovdqu	8(%rdi), %xmm0
	vmovdqu	48(%rdi), %xmm2
	movq	48(%rbp), %rcx
	movq	64(%rbp), %rdx
	movq	%rsi, 72(%rbx)
	vmovdqu	%xmm0, 8(%rbp)
	movl	24(%rdi), %ebx
	movw	%ax, 28(%rbp)
	movl	%ebx, 24(%rbp)
	movq	32(%rdi), %r8
	movq	%r8, 32(%rbp)
	movl	40(%rdi), %r9d
	vmovdqu	%xmm2, 48(%rbp)
	movq	64(%rdi), %r10
	movl	%r9d, 40(%rbp)
	movq	%r10, 64(%rbp)
	movq	$0, 64(%rdi)
	vmovdqu	%xmm6, 48(%rdi)
	testq	%rcx, %rcx
	je	.L1434
	subq	%rcx, %rdx
	call	_ZdlPvy
.L1434:
	leaq	72(%rdi), %rsi
	leaq	72(%rbp), %rbx
	cmpq	%rsi, %r14
	jne	.L1268
	movq	48(%rsp), %rdi
	movq	56(%rsp), %rbp
.L1269:
	cmpq	%r15, %r13
	je	.L1273
	movq	%r13, %rdx
	subq	%r15, %rdx
	andl	$8, %edx
	je	.L1555
	vmovdqu	8(%r15), %xmm1
	movq	(%r15), %rcx
	vmovdqu	48(%r15), %xmm3
	movzwl	28(%r15), %eax
	vmovdqu	%xmm1, 8(%rbx)
	movl	24(%r15), %r11d
	movq	64(%rbx), %rdx
	movq	%rcx, (%rbx)
	movq	48(%rbx), %rcx
	movl	%r11d, 24(%rbx)
	movq	32(%r15), %r8
	movw	%ax, 28(%rbx)
	movq	%r8, 32(%rbx)
	movl	40(%r15), %r9d
	vmovdqu	%xmm3, 48(%rbx)
	movq	64(%r15), %r10
	movl	%r9d, 40(%rbx)
	movq	%r10, 64(%rbx)
	movq	$0, 64(%r15)
	vmovdqu	%xmm6, 48(%r15)
	testq	%rcx, %rcx
	je	.L1426
	subq	%rcx, %rdx
	call	_ZdlPvy
.L1426:
	addq	$72, %r15
	addq	$72, %rbx
	cmpq	%r15, %r13
	je	.L1273
.L1555:
	movq	%rdi, 48(%rsp)
.L1275:
	vmovdqu	8(%r15), %xmm4
	movq	(%r15), %rsi
	vmovdqu	48(%r15), %xmm5
	movzwl	28(%r15), %edx
	vmovdqu	%xmm4, 8(%rbx)
	movl	24(%r15), %edi
	movq	%rsi, (%rbx)
	movl	%edi, 24(%rbx)
	movq	32(%r15), %rcx
	movw	%dx, 28(%rbx)
	movq	64(%rbx), %rdx
	movq	%rcx, 32(%rbx)
	movq	48(%rbx), %rcx
	movl	40(%r15), %r11d
	vmovdqu	%xmm5, 48(%rbx)
	movq	64(%r15), %rax
	movl	%r11d, 40(%rbx)
	movq	%rax, 64(%rbx)
	movq	$0, 64(%r15)
	vmovdqu	%xmm6, 48(%r15)
	testq	%rcx, %rcx
	je	.L1274
	subq	%rcx, %rdx
	call	_ZdlPvy
.L1274:
	leaq	72(%r15), %rsi
	vmovdqu	8(%rsi), %xmm0
	movq	72(%r15), %r15
	leaq	72(%rbx), %rdi
	vmovdqu	48(%rsi), %xmm2
	movzwl	28(%rsi), %r8d
	movq	48(%rdi), %rcx
	movq	64(%rdi), %rdx
	movq	%r15, 72(%rbx)
	vmovdqu	%xmm0, 8(%rdi)
	movl	24(%rsi), %ebx
	movw	%r8w, 28(%rdi)
	movl	%ebx, 24(%rdi)
	movq	32(%rsi), %r9
	movq	%r9, 32(%rdi)
	movl	40(%rsi), %r10d
	vmovdqu	%xmm2, 48(%rdi)
	movq	64(%rsi), %r11
	movl	%r10d, 40(%rdi)
	movq	%r11, 64(%rdi)
	movq	$0, 64(%rsi)
	vmovdqu	%xmm6, 48(%rsi)
	testq	%rcx, %rcx
	je	.L1429
	subq	%rcx, %rdx
	call	_ZdlPvy
.L1429:
	leaq	72(%rsi), %r15
	leaq	72(%rdi), %rbx
	cmpq	%r15, %r13
	jne	.L1275
	movq	48(%rsp), %rdi
.L1273:
	movabsq	$-8198552921648689607, %rcx
	movq	%rbp, %rdx
	addq	%rdi, %r14
	subq	%r13, %rdx
	sarq	$3, %rdx
	imulq	%rcx, %rdx
	cmpq	%rdx, 40(%rsp)
	jle	.L1276
	movq	%r13, %r14
	movq	88(%rsp), %r12
	movq	80(%rsp), %r13
.L1260:
	movq	32(%rsp), %rax
	cmpq	%rax, %rdx
	cmovg	%rax, %rdx
	leaq	(%rdx,%rdx,8), %rdx
	leaq	(%r14,%rdx,8), %rdi
	leaq	(%r14,%rdx,8), %rsi
	cmpq	%r14, %rdi
	jne	.L1277
	jmp	.L1278
	.p2align 4,,10
	.p2align 3
.L1284:
	vmovdqu	8(%rdi), %xmm0
	movq	(%rdi), %r10
	vmovdqu	48(%rdi), %xmm3
	movzwl	28(%rdi), %eax
	vmovdqu	%xmm0, 8(%rbx)
	movl	24(%rdi), %r11d
	movq	%r10, (%rbx)
	movl	%r11d, 24(%rbx)
	vmovd	32(%rdi), %xmm2
	movw	%ax, 28(%rbx)
	vpinsrd	$1, %r15d, %xmm2, %xmm1
	vmovq	%xmm1, 32(%rbx)
	movl	40(%rdi), %r8d
	vmovdqu	%xmm3, 48(%rbx)
	movq	64(%rdi), %r9
	movl	%r8d, 40(%rbx)
	movq	%r9, 64(%rbx)
	movq	$0, 64(%rdi)
	vmovdqu	%xmm6, 48(%rdi)
	testq	%rcx, %rcx
	je	.L1279
	call	_ZdlPvy
.L1279:
	addq	$72, %rdi
	addq	$72, %rbx
	cmpq	%r14, %rsi
	je	.L1278
.L1277:
	cmpq	%rdi, %rbp
	je	.L1562
	movq	48(%rbx), %rcx
	movq	64(%rbx), %rdx
	movl	36(%rdi), %r15d
	movl	36(%r14), %r10d
	subq	%rcx, %rdx
	cmpl	%r10d, %r15d
	jg	.L1284
	vmovdqu	8(%r14), %xmm1
	movq	(%r14), %r11
	vmovdqu	48(%r14), %xmm5
	movzwl	28(%r14), %r8d
	vmovdqu	%xmm1, 8(%rbx)
	movl	24(%r14), %eax
	movq	%r11, (%rbx)
	movl	%eax, 24(%rbx)
	vmovd	32(%r14), %xmm3
	movw	%r8w, 28(%rbx)
	vpinsrd	$1, %r10d, %xmm3, %xmm4
	vmovq	%xmm4, 32(%rbx)
	movl	40(%r14), %r9d
	vmovdqu	%xmm5, 48(%rbx)
	movq	64(%r14), %r15
	movl	%r9d, 40(%rbx)
	movq	%r15, 64(%rbx)
	movq	$0, 64(%r14)
	vmovdqu	%xmm6, 48(%r14)
	testq	%rcx, %rcx
	je	.L1281
	call	_ZdlPvy
.L1281:
	addq	$72, %r14
	addq	$72, %rbx
	cmpq	%r14, %rsi
	jne	.L1277
.L1278:
	cmpq	%rdi, %rbp
	je	.L1291
	movq	%rbp, %rdx
	subq	%rdi, %rdx
	testb	$8, %dl
	je	.L1287
	vmovdqu	8(%rdi), %xmm4
	movq	(%rdi), %rcx
	vmovdqu	48(%rdi), %xmm5
	movzwl	28(%rdi), %esi
	vmovdqu	%xmm4, 8(%rbx)
	movl	24(%rdi), %r14d
	movq	64(%rbx), %rdx
	movq	%rcx, (%rbx)
	movq	48(%rbx), %rcx
	movl	%r14d, 24(%rbx)
	movq	32(%rdi), %r15
	movw	%si, 28(%rbx)
	movq	%r15, 32(%rbx)
	movl	40(%rdi), %r10d
	vmovdqu	%xmm5, 48(%rbx)
	movq	64(%rdi), %r11
	movl	%r10d, 40(%rbx)
	movq	%r11, 64(%rbx)
	movq	$0, 64(%rdi)
	vmovdqu	%xmm6, 48(%rdi)
	testq	%rcx, %rcx
	je	.L1416
	subq	%rcx, %rdx
	call	_ZdlPvy
.L1416:
	addq	$72, %rdi
	addq	$72, %rbx
	cmpq	%rdi, %rbp
	je	.L1291
	.p2align 4
	.p2align 3
.L1287:
	vmovdqu	8(%rdi), %xmm0
	movq	(%rdi), %rax
	movzwl	28(%rdi), %r9d
	vmovdqu	48(%rdi), %xmm2
	vmovdqu	%xmm0, 8(%rbx)
	movl	24(%rdi), %r8d
	movq	%rax, (%rbx)
	movl	%r8d, 24(%rbx)
	movq	32(%rdi), %rdx
	movw	%r9w, 28(%rbx)
	movq	%rdx, 32(%rbx)
	movl	40(%rdi), %ecx
	movq	64(%rbx), %rdx
	movl	%ecx, 40(%rbx)
	movq	48(%rbx), %rcx
	vmovdqu	%xmm2, 48(%rbx)
	movq	64(%rdi), %r14
	movq	%r14, 64(%rbx)
	movq	$0, 64(%rdi)
	vmovdqu	%xmm6, 48(%rdi)
	testq	%rcx, %rcx
	je	.L1290
	subq	%rcx, %rdx
	call	_ZdlPvy
.L1290:
	leaq	72(%rdi), %rsi
	vmovdqu	8(%rsi), %xmm1
	movq	72(%rdi), %rdi
	leaq	72(%rbx), %r15
	vmovdqu	48(%rsi), %xmm3
	movzwl	28(%rsi), %r10d
	movq	48(%r15), %rcx
	movq	64(%r15), %rdx
	movq	%rdi, 72(%rbx)
	vmovdqu	%xmm1, 8(%r15)
	movl	24(%rsi), %ebx
	movw	%r10w, 28(%r15)
	movl	%ebx, 24(%r15)
	movq	32(%rsi), %r11
	movq	%r11, 32(%r15)
	movl	40(%rsi), %eax
	vmovdqu	%xmm3, 48(%r15)
	movq	64(%rsi), %r8
	movl	%eax, 40(%r15)
	movq	%r8, 64(%r15)
	movq	$0, 64(%rsi)
	vmovdqu	%xmm6, 48(%rsi)
	testq	%rcx, %rcx
	je	.L1419
	subq	%rcx, %rdx
	call	_ZdlPvy
.L1419:
	leaq	72(%rsi), %rdi
	leaq	72(%r15), %rbx
	cmpq	%rdi, %rbp
	jne	.L1287
.L1291:
	salq	$2, 32(%rsp)
	movq	32(%rsp), %r9
	cmpq	%r9, 64(%rsp)
	jl	.L1563
	movq	40(%rsp), %rcx
	leaq	(%r9,%r9,8), %rdx
	movq	72(%rsp), %rax
	movq	%r13, 56(%rsp)
	leaq	0(,%rdx,8), %r14
	movq	%rbp, 88(%rsp)
	movq	%r12, %rbx
	leaq	(%rcx,%rcx,8), %r15
	movq	%r12, 80(%rsp)
	salq	$3, %r15
	cmpq	%r15, %r14
	leaq	(%rax,%r15), %r12
	setne	%sil
	movl	%esi, %r15d
	.p2align 4
	.p2align 3
.L1305:
	movq	%rax, %rsi
	addq	%r14, %rax
	movq	%r12, %r13
	movq	%rax, %rbp
	subq	%r14, %rbp
	cmpq	%rbp, %r12
	je	.L1292
	testb	%r15b, %r15b
	je	.L1292
	movq	%r12, %rdi
	movq	%rax, %r12
	jmp	.L1297
	.p2align 4,,10
	.p2align 3
.L1564:
	vmovdqu	8(%r13), %xmm1
	movq	0(%r13), %r11
	vmovdqu	48(%r13), %xmm5
	movzwl	28(%r13), %r8d
	vmovdqu	%xmm1, 8(%rbx)
	movl	24(%r13), %eax
	movq	%r11, (%rbx)
	movl	%eax, 24(%rbx)
	vmovd	32(%r13), %xmm3
	movw	%r8w, 28(%rbx)
	vpinsrd	$1, %r10d, %xmm3, %xmm4
	vmovq	%xmm4, 32(%rbx)
	movl	40(%r13), %r9d
	vmovdqu	%xmm5, 48(%rbx)
	movq	64(%r13), %rbp
	movl	%r9d, 40(%rbx)
	movq	%rbp, 64(%rbx)
	movq	$0, 64(%r13)
	vmovdqu	%xmm6, 48(%r13)
	testq	%rcx, %rcx
	je	.L1294
	call	_ZdlPvy
.L1294:
	addq	$72, %r13
	addq	$72, %rbx
	cmpq	%rdi, %rsi
	je	.L1546
.L1565:
	cmpq	%r13, %r12
	je	.L1546
.L1297:
	movq	48(%rbx), %rcx
	movq	64(%rbx), %rdx
	movl	36(%r13), %r10d
	movl	36(%rsi), %r11d
	subq	%rcx, %rdx
	cmpl	%r11d, %r10d
	jg	.L1564
	vmovdqu	8(%rsi), %xmm4
	movq	(%rsi), %rax
	vmovdqu	48(%rsi), %xmm2
	movzwl	28(%rsi), %r9d
	vmovdqu	%xmm4, 8(%rbx)
	movl	24(%rsi), %r8d
	movq	%rax, (%rbx)
	movl	%r8d, 24(%rbx)
	vmovd	32(%rsi), %xmm5
	movw	%r9w, 28(%rbx)
	vpinsrd	$1, %r11d, %xmm5, %xmm0
	vmovq	%xmm0, 32(%rbx)
	movl	40(%rsi), %ebp
	vmovdqu	%xmm2, 48(%rbx)
	movq	64(%rsi), %r10
	movl	%ebp, 40(%rbx)
	movq	%r10, 64(%rbx)
	movq	$0, 64(%rsi)
	vmovdqu	%xmm6, 48(%rsi)
	testq	%rcx, %rcx
	je	.L1296
	call	_ZdlPvy
.L1296:
	addq	$72, %rsi
	addq	$72, %rbx
	cmpq	%rdi, %rsi
	jne	.L1565
.L1546:
	movq	%r12, %rax
	movq	%rdi, %r12
.L1292:
	cmpq	%rsi, %r12
	je	.L1299
	movq	%r12, %rdx
	subq	%rsi, %rdx
	andl	$8, %edx
	je	.L1552
	vmovdqu	8(%rsi), %xmm0
	movq	(%rsi), %rcx
	vmovdqu	48(%rsi), %xmm2
	movzwl	28(%rsi), %r10d
	vmovdqu	%xmm0, 8(%rbx)
	movl	24(%rsi), %edi
	movq	64(%rbx), %rdx
	movq	%rcx, (%rbx)
	movq	48(%rbx), %rcx
	movl	%edi, 24(%rbx)
	movq	32(%rsi), %r11
	movw	%r10w, 28(%rbx)
	movq	%r11, 32(%rbx)
	movl	40(%rsi), %r8d
	vmovdqu	%xmm2, 48(%rbx)
	movq	64(%rsi), %r9
	movl	%r8d, 40(%rbx)
	movq	%r9, 64(%rbx)
	movq	$0, 64(%rsi)
	vmovdqu	%xmm6, 48(%rsi)
	testq	%rcx, %rcx
	je	.L1411
	subq	%rcx, %rdx
	movq	%rax, 48(%rsp)
	call	_ZdlPvy
	movq	48(%rsp), %rax
.L1411:
	addq	$72, %rsi
	addq	$72, %rbx
	cmpq	%rsi, %r12
	je	.L1299
.L1552:
	movq	%rax, 48(%rsp)
.L1301:
	vmovdqu	8(%rsi), %xmm1
	movq	(%rsi), %rax
	vmovdqu	48(%rsi), %xmm3
	movzwl	28(%rsi), %edx
	vmovdqu	%xmm1, 8(%rbx)
	movl	24(%rsi), %ebp
	movq	%rax, (%rbx)
	movl	%ebp, 24(%rbx)
	movq	32(%rsi), %rcx
	movw	%dx, 28(%rbx)
	movq	64(%rbx), %rdx
	movq	%rcx, 32(%rbx)
	movq	48(%rbx), %rcx
	movl	40(%rsi), %edi
	vmovdqu	%xmm3, 48(%rbx)
	movq	64(%rsi), %r10
	movl	%edi, 40(%rbx)
	movq	%r10, 64(%rbx)
	movq	$0, 64(%rsi)
	vmovdqu	%xmm6, 48(%rsi)
	testq	%rcx, %rcx
	je	.L1300
	subq	%rcx, %rdx
	call	_ZdlPvy
.L1300:
	leaq	72(%rsi), %rdi
	vmovdqu	8(%rdi), %xmm4
	movq	72(%rsi), %rsi
	leaq	72(%rbx), %rbp
	vmovdqu	48(%rdi), %xmm5
	movzwl	28(%rdi), %r11d
	movq	48(%rbp), %rcx
	movq	64(%rbp), %rdx
	movq	%rsi, 72(%rbx)
	vmovdqu	%xmm4, 8(%rbp)
	movl	24(%rdi), %ebx
	movw	%r11w, 28(%rbp)
	movl	%ebx, 24(%rbp)
	movq	32(%rdi), %r8
	movq	%r8, 32(%rbp)
	movl	40(%rdi), %r9d
	vmovdqu	%xmm5, 48(%rbp)
	movq	64(%rdi), %rax
	movl	%r9d, 40(%rbp)
	movq	%rax, 64(%rbp)
	movq	$0, 64(%rdi)
	vmovdqu	%xmm6, 48(%rdi)
	testq	%rcx, %rcx
	je	.L1414
	subq	%rcx, %rdx
	call	_ZdlPvy
.L1414:
	leaq	72(%rdi), %rsi
	leaq	72(%rbp), %rbx
	cmpq	%rsi, %r12
	jne	.L1301
	movq	48(%rsp), %rax
.L1299:
	cmpq	%r13, %rax
	je	.L1302
	movq	%rax, %rdx
	subq	%r13, %rdx
	andl	$8, %edx
	je	.L1551
	vmovdqu	8(%r13), %xmm0
	movq	0(%r13), %rcx
	vmovdqu	48(%r13), %xmm2
	movzwl	28(%r13), %ebp
	vmovdqu	%xmm0, 8(%rbx)
	movl	24(%r13), %r10d
	movq	64(%rbx), %rdx
	movq	%rcx, (%rbx)
	movq	48(%rbx), %rcx
	movl	%r10d, 24(%rbx)
	movq	32(%r13), %rdi
	movw	%bp, 28(%rbx)
	movq	%rdi, 32(%rbx)
	movl	40(%r13), %r11d
	vmovdqu	%xmm2, 48(%rbx)
	movq	64(%r13), %r8
	movl	%r11d, 40(%rbx)
	movq	%r8, 64(%rbx)
	movq	$0, 64(%r13)
	vmovdqu	%xmm6, 48(%r13)
	testq	%rcx, %rcx
	je	.L1406
	subq	%rcx, %rdx
	movq	%rax, 48(%rsp)
	call	_ZdlPvy
	movq	48(%rsp), %rax
.L1406:
	addq	$72, %r13
	addq	$72, %rbx
	cmpq	%r13, %rax
	je	.L1302
.L1551:
	movq	%rax, %rsi
.L1304:
	vmovdqu	8(%r13), %xmm1
	movq	0(%r13), %r9
	vmovdqu	48(%r13), %xmm3
	movzwl	28(%r13), %edx
	vmovdqu	%xmm1, 8(%rbx)
	movl	24(%r13), %eax
	movq	%r9, (%rbx)
	movl	%eax, 24(%rbx)
	movq	32(%r13), %rcx
	movw	%dx, 28(%rbx)
	movq	64(%rbx), %rdx
	movq	%rcx, 32(%rbx)
	movq	48(%rbx), %rcx
	movl	40(%r13), %r10d
	vmovdqu	%xmm3, 48(%rbx)
	movq	64(%r13), %rbp
	movl	%r10d, 40(%rbx)
	movq	%rbp, 64(%rbx)
	movq	$0, 64(%r13)
	vmovdqu	%xmm6, 48(%r13)
	testq	%rcx, %rcx
	je	.L1303
	subq	%rcx, %rdx
	call	_ZdlPvy
.L1303:
	leaq	72(%r13), %rdi
	vmovdqu	8(%rdi), %xmm4
	movq	72(%r13), %r13
	leaq	72(%rbx), %rbp
	vmovdqu	48(%rdi), %xmm5
	movzwl	28(%rdi), %r11d
	movq	48(%rbp), %rcx
	movq	64(%rbp), %rdx
	movq	%r13, 72(%rbx)
	vmovdqu	%xmm4, 8(%rbp)
	movl	24(%rdi), %ebx
	movw	%r11w, 28(%rbp)
	movl	%ebx, 24(%rbp)
	movq	32(%rdi), %r8
	movq	%r8, 32(%rbp)
	movl	40(%rdi), %r9d
	vmovdqu	%xmm5, 48(%rbp)
	movq	64(%rdi), %rax
	movl	%r9d, 40(%rbp)
	movq	%rax, 64(%rbp)
	movq	$0, 64(%rdi)
	vmovdqu	%xmm6, 48(%rdi)
	testq	%rcx, %rcx
	je	.L1409
	subq	%rcx, %rdx
	call	_ZdlPvy
.L1409:
	leaq	72(%rdi), %r13
	leaq	72(%rbp), %rbx
	cmpq	%r13, %rsi
	jne	.L1304
	movq	%rsi, %rax
.L1302:
	movq	56(%rsp), %rsi
	addq	%r14, %r12
	movabsq	$-8198552921648689607, %rdx
	subq	%rax, %rsi
	sarq	$3, %rsi
	imulq	%rdx, %rsi
	cmpq	%rsi, 32(%rsp)
	jle	.L1305
	movq	56(%rsp), %r13
	movq	80(%rsp), %r12
	movq	88(%rsp), %rbp
.L1289:
	movq	40(%rsp), %r14
	cmpq	%rsi, %r14
	cmovle	%r14, %rsi
	leaq	(%rsi,%rsi,8), %r15
	leaq	(%rax,%r15,8), %rsi
	movq	%rsi, %rdi
	cmpq	%rsi, %r13
	je	.L1306
	cmpq	%rax, %rsi
	je	.L1306
	movq	%rax, %r14
	jmp	.L1311
	.p2align 4,,10
	.p2align 3
.L1567:
	vmovdqu	8(%rdi), %xmm4
	movq	(%rdi), %r11
	vmovdqu	48(%rdi), %xmm2
	movzwl	28(%rdi), %r9d
	vmovdqu	%xmm4, 8(%rbx)
	movl	24(%rdi), %r8d
	movq	%r11, (%rbx)
	movl	%r8d, 24(%rbx)
	vmovd	32(%rdi), %xmm5
	movw	%r9w, 28(%rbx)
	vpinsrd	$1, %r10d, %xmm5, %xmm0
	vmovq	%xmm0, 32(%rbx)
	movl	40(%rdi), %eax
	vmovdqu	%xmm2, 48(%rbx)
	movq	64(%rdi), %r15
	movl	%eax, 40(%rbx)
	movq	%r15, 64(%rbx)
	movq	$0, 64(%rdi)
	vmovdqu	%xmm6, 48(%rdi)
	testq	%rcx, %rcx
	je	.L1308
	call	_ZdlPvy
.L1308:
	addq	$72, %rdi
	addq	$72, %rbx
	cmpq	%r14, %rsi
	je	.L1313
.L1568:
	cmpq	%rdi, %r13
	je	.L1566
.L1311:
	movq	48(%rbx), %rcx
	movq	64(%rbx), %rdx
	movl	36(%rdi), %r10d
	movl	36(%r14), %r11d
	subq	%rcx, %rdx
	cmpl	%r11d, %r10d
	jg	.L1567
	vmovdqu	8(%r14), %xmm0
	movq	(%r14), %r8
	vmovdqu	48(%r14), %xmm3
	movzwl	28(%r14), %eax
	vmovdqu	%xmm0, 8(%rbx)
	movl	24(%r14), %r9d
	movq	%r8, (%rbx)
	movl	%r9d, 24(%rbx)
	vmovd	32(%r14), %xmm2
	movw	%ax, 28(%rbx)
	vpinsrd	$1, %r11d, %xmm2, %xmm1
	vmovq	%xmm1, 32(%rbx)
	movl	40(%r14), %r15d
	vmovdqu	%xmm3, 48(%rbx)
	movq	64(%r14), %r10
	movl	%r15d, 40(%rbx)
	movq	%r10, 64(%rbx)
	movq	$0, 64(%r14)
	vmovdqu	%xmm6, 48(%r14)
	testq	%rcx, %rcx
	je	.L1310
	call	_ZdlPvy
.L1310:
	addq	$72, %r14
	addq	$72, %rbx
	cmpq	%r14, %rsi
	jne	.L1568
.L1313:
	cmpq	%rdi, %r13
	je	.L1320
	movq	%r13, %rsi
	subq	%rdi, %rsi
	testb	$8, %sil
	je	.L1316
	vmovdqu	8(%rdi), %xmm1
	movq	(%rdi), %rcx
	vmovdqu	48(%rdi), %xmm3
	movzwl	28(%rdi), %r10d
	vmovdqu	%xmm1, 8(%rbx)
	movl	24(%rdi), %edx
	movq	%rcx, (%rbx)
	movq	48(%rbx), %rcx
	movl	%edx, 24(%rbx)
	movq	32(%rdi), %r15
	movq	64(%rbx), %rdx
	movw	%r10w, 28(%rbx)
	movq	%r15, 32(%rbx)
	movl	40(%rdi), %r11d
	vmovdqu	%xmm3, 48(%rbx)
	movq	64(%rdi), %r8
	movl	%r11d, 40(%rbx)
	movq	%r8, 64(%rbx)
	movq	$0, 64(%rdi)
	vmovdqu	%xmm6, 48(%rdi)
	testq	%rcx, %rcx
	je	.L1396
	subq	%rcx, %rdx
	call	_ZdlPvy
.L1396:
	addq	$72, %rdi
	addq	$72, %rbx
	cmpq	%rdi, %r13
	je	.L1320
	.p2align 4
	.p2align 3
.L1316:
	vmovdqu	8(%rdi), %xmm4
	movq	(%rdi), %r9
	movzwl	28(%rdi), %r14d
	vmovdqu	48(%rdi), %xmm5
	vmovdqu	%xmm4, 8(%rbx)
	movl	24(%rdi), %eax
	movq	64(%rbx), %rdx
	movq	%r9, (%rbx)
	movl	%eax, 24(%rbx)
	movq	32(%rdi), %rsi
	movw	%r14w, 28(%rbx)
	movq	%rsi, 32(%rbx)
	movl	40(%rdi), %ecx
	movl	%ecx, 40(%rbx)
	movq	48(%rbx), %rcx
	vmovdqu	%xmm5, 48(%rbx)
	movq	64(%rdi), %r10
	movq	%r10, 64(%rbx)
	movq	$0, 64(%rdi)
	vmovdqu	%xmm6, 48(%rdi)
	testq	%rcx, %rcx
	je	.L1319
	subq	%rcx, %rdx
	call	_ZdlPvy
.L1319:
	leaq	72(%rdi), %r14
	movq	72(%rdi), %rdi
	leaq	72(%rbx), %r15
	movq	48(%r15), %rcx
	vmovdqu	8(%r14), %xmm0
	vmovdqu	48(%r14), %xmm2
	movq	%rdi, 72(%rbx)
	movzwl	28(%r14), %edx
	vmovdqu	%xmm0, 8(%r15)
	movl	24(%r14), %ebx
	movw	%dx, 28(%r15)
	movq	64(%r15), %rdx
	movl	%ebx, 24(%r15)
	movq	32(%r14), %r11
	movq	%r11, 32(%r15)
	movl	40(%r14), %r8d
	vmovdqu	%xmm2, 48(%r15)
	movq	64(%r14), %r9
	movl	%r8d, 40(%r15)
	movq	%r9, 64(%r15)
	movq	$0, 64(%r14)
	vmovdqu	%xmm6, 48(%r14)
	testq	%rcx, %rcx
	je	.L1399
	subq	%rcx, %rdx
	call	_ZdlPvy
.L1399:
	leaq	72(%r14), %rdi
	leaq	72(%r15), %rbx
	cmpq	%rdi, %r13
	jne	.L1316
.L1320:
	movq	32(%rsp), %rax
	cmpq	%rax, 64(%rsp)
	jg	.L1317
.L1559:
	vmovups	96(%rsp), %xmm6
	addq	$120, %rsp
	popq	%rbx
	popq	%rsi
	popq	%rdi
	popq	%rbp
	popq	%r12
	popq	%r13
	popq	%r14
	popq	%r15
	ret
.L1562:
	movq	%rsi, %r8
	cmpq	%r14, %rsi
	je	.L1278
	subq	%r14, %rsi
	andl	$8, %esi
	je	.L1554
	vmovdqu	8(%r14), %xmm1
	movq	(%r14), %r9
	movzwl	28(%r14), %r11d
	vmovdqu	48(%r14), %xmm3
	vmovdqu	%xmm1, 8(%rbx)
	movl	24(%r14), %r10d
	movq	64(%rbx), %rdx
	movq	%r9, (%rbx)
	movl	%r10d, 24(%rbx)
	movq	32(%r14), %r15
	movw	%r11w, 28(%rbx)
	movq	%r15, 32(%rbx)
	movl	40(%r14), %ecx
	movl	%ecx, 40(%rbx)
	movq	48(%rbx), %rcx
	vmovdqu	%xmm3, 48(%rbx)
	movq	64(%r14), %rax
	movq	%rax, 64(%rbx)
	movq	$0, 64(%r14)
	vmovdqu	%xmm6, 48(%r14)
	testq	%rcx, %rcx
	je	.L1421
	subq	%rcx, %rdx
	movq	%r8, 48(%rsp)
	call	_ZdlPvy
	movq	48(%rsp), %r8
.L1421:
	addq	$72, %r14
	addq	$72, %rbx
	cmpq	%r14, %r8
	je	.L1278
.L1554:
	movq	%rdi, 48(%rsp)
	movq	%r8, %r15
.L1283:
	vmovdqu	8(%r14), %xmm4
	movq	(%r14), %rdi
	vmovdqu	48(%r14), %xmm5
	movzwl	28(%r14), %esi
	vmovdqu	%xmm4, 8(%rbx)
	movl	24(%r14), %edx
	movq	48(%rbx), %rcx
	movq	%rdi, (%rbx)
	movl	%edx, 24(%rbx)
	movq	32(%r14), %r9
	movq	64(%rbx), %rdx
	movw	%si, 28(%rbx)
	movq	%r9, 32(%rbx)
	movl	40(%r14), %r10d
	vmovdqu	%xmm5, 48(%rbx)
	movq	64(%r14), %r11
	movl	%r10d, 40(%rbx)
	movq	%r11, 64(%rbx)
	movq	$0, 64(%r14)
	vmovdqu	%xmm6, 48(%r14)
	testq	%rcx, %rcx
	je	.L1286
	subq	%rcx, %rdx
	call	_ZdlPvy
.L1286:
	leaq	72(%r14), %rsi
	vmovdqu	8(%rsi), %xmm0
	movq	72(%r14), %r14
	leaq	72(%rbx), %rdi
	movzwl	28(%rsi), %ecx
	vmovdqu	48(%rsi), %xmm2
	movq	%r14, 72(%rbx)
	movq	64(%rdi), %rdx
	vmovdqu	%xmm0, 8(%rdi)
	movl	24(%rsi), %ebx
	movw	%cx, 28(%rdi)
	movq	48(%rdi), %rcx
	movl	%ebx, 24(%rdi)
	movq	32(%rsi), %rax
	movq	%rax, 32(%rdi)
	movl	40(%rsi), %r8d
	vmovdqu	%xmm2, 48(%rdi)
	movq	64(%rsi), %r9
	movl	%r8d, 40(%rdi)
	movq	%r9, 64(%rdi)
	movq	$0, 64(%rsi)
	vmovdqu	%xmm6, 48(%rsi)
	testq	%rcx, %rcx
	je	.L1424
	subq	%rcx, %rdx
	call	_ZdlPvy
.L1424:
	leaq	72(%rsi), %r14
	leaq	72(%rdi), %rbx
	cmpq	%r14, %r15
	jne	.L1283
	movq	48(%rsp), %rdi
	jmp	.L1278
	.p2align 4,,10
	.p2align 3
.L1326:
	movq	%r14, %r15
	jmp	.L1263
.L1566:
	movq	%r14, %rax
.L1306:
	cmpq	%rax, %rsi
	je	.L1313
	movq	%rsi, %rcx
	subq	%rax, %rcx
	andl	$8, %ecx
	je	.L1550
	vmovdqu	8(%rax), %xmm1
	movq	(%rax), %rdx
	vmovdqu	48(%rax), %xmm3
	movzwl	28(%rax), %r10d
	vmovdqu	%xmm1, 8(%rbx)
	movl	24(%rax), %r14d
	movq	48(%rbx), %rcx
	movq	%rdx, (%rbx)
	movq	64(%rbx), %rdx
	movl	%r14d, 24(%rbx)
	movq	32(%rax), %r11
	movw	%r10w, 28(%rbx)
	movq	%r11, 32(%rbx)
	movl	40(%rax), %r8d
	vmovdqu	%xmm3, 48(%rbx)
	movq	64(%rax), %r9
	movl	%r8d, 40(%rbx)
	movq	%r9, 64(%rbx)
	movq	$0, 64(%rax)
	vmovdqu	%xmm6, 48(%rax)
	testq	%rcx, %rcx
	je	.L1401
	subq	%rcx, %rdx
	movq	%rax, 40(%rsp)
	call	_ZdlPvy
	movq	40(%rsp), %rax
.L1401:
	addq	$72, %rax
	addq	$72, %rbx
	cmpq	%rax, %rsi
	je	.L1313
.L1550:
	movq	%rdi, 40(%rsp)
	movq	%rax, %r14
.L1315:
	vmovdqu	8(%r14), %xmm4
	movq	(%r14), %rdi
	vmovdqu	48(%r14), %xmm5
	movzwl	28(%r14), %r15d
	vmovdqu	%xmm4, 8(%rbx)
	movl	24(%r14), %eax
	movq	%rdi, (%rbx)
	movl	%eax, 24(%rbx)
	movq	32(%r14), %rcx
	movw	%r15w, 28(%rbx)
	movq	%rcx, 32(%rbx)
	movq	48(%rbx), %rcx
	movl	40(%r14), %edx
	vmovdqu	%xmm5, 48(%rbx)
	movq	64(%r14), %r10
	movl	%edx, 40(%rbx)
	movq	64(%rbx), %rdx
	movq	%r10, 64(%rbx)
	movq	$0, 64(%r14)
	vmovdqu	%xmm6, 48(%r14)
	testq	%rcx, %rcx
	je	.L1314
	subq	%rcx, %rdx
	call	_ZdlPvy
.L1314:
	leaq	72(%r14), %r15
	vmovdqu	8(%r15), %xmm0
	movq	72(%r14), %r14
	leaq	72(%rbx), %rdi
	vmovdqu	48(%r15), %xmm2
	movzwl	28(%r15), %r11d
	movq	48(%rdi), %rcx
	movq	64(%rdi), %rdx
	movq	%r14, 72(%rbx)
	vmovdqu	%xmm0, 8(%rdi)
	movl	24(%r15), %ebx
	movw	%r11w, 28(%rdi)
	movl	%ebx, 24(%rdi)
	movq	32(%r15), %r8
	movq	%r8, 32(%rdi)
	movl	40(%r15), %r9d
	vmovdqu	%xmm2, 48(%rdi)
	movq	64(%r15), %rax
	movl	%r9d, 40(%rdi)
	movq	%rax, 64(%rdi)
	movq	$0, 64(%r15)
	vmovdqu	%xmm6, 48(%r15)
	testq	%rcx, %rcx
	je	.L1404
	subq	%rcx, %rdx
	call	_ZdlPvy
.L1404:
	leaq	72(%r15), %r14
	leaq	72(%rdi), %rbx
	cmpq	%r14, %rsi
	jne	.L1315
	movq	40(%rsp), %rdi
	jmp	.L1313
.L1321:
	movq	64(%rsp), %rdx
	movq	72(%rsp), %rbx
	movq	%r12, %r14
	jmp	.L1260
.L1563:
	movq	64(%rsp), %rsi
	movq	72(%rsp), %rax
	movq	%r12, %rbx
	jmp	.L1289
.L1256:
	vmovups	96(%rsp), %xmm6
	addq	$120, %rsp
	popq	%rbx
	popq	%rsi
	popq	%rdi
	popq	%rbp
	popq	%r12
	popq	%r13
	popq	%r14
	popq	%r15
	jmp	_ZSt16__insertion_sortIN9__gnu_cxx17__normal_iteratorIPN9Stockfish6Search8RootMoveESt6vectorIS4_SaIS4_EEEENS0_5__ops15_Iter_comp_iterIZNS2_16syzygy_extend_pvERKNS2_10OptionsMapERKNS3_10LimitsTypeERNS2_8PositionERS4_RiEUlRKS4_SN_E_EEEvT_SQ_T0_.isra.0
	.seh_endproc
	.p2align 4
	.def	_ZSt17__rotate_adaptiveIN9__gnu_cxx17__normal_iteratorIPN9Stockfish6Search8RootMoveESt6vectorIS4_SaIS4_EEEES5_xET_SA_SA_SA_T1_SB_T0_SB_;	.scl	3;	.type	32;	.endef
	.seh_proc	_ZSt17__rotate_adaptiveIN9__gnu_cxx17__normal_iteratorIPN9Stockfish6Search8RootMoveESt6vectorIS4_SaIS4_EEEES5_xET_SA_SA_SA_T1_SB_T0_SB_
_ZSt17__rotate_adaptiveIN9__gnu_cxx17__normal_iteratorIPN9Stockfish6Search8RootMoveESt6vectorIS4_SaIS4_EEEES5_xET_SA_SA_SA_T1_SB_T0_SB_:
	pushq	%r15
	.seh_pushreg	%r15
	pushq	%r14
	.seh_pushreg	%r14
	pushq	%r13
	.seh_pushreg	%r13
	pushq	%r12
	.seh_pushreg	%r12
	pushq	%rbp
	.seh_pushreg	%rbp
	pushq	%rdi
	.seh_pushreg	%rdi
	pushq	%rsi
	.seh_pushreg	%rsi
	pushq	%rbx
	.seh_pushreg	%rbx
	subq	$72, %rsp
	.seh_stackalloc	72
	vmovups	%xmm6, 48(%rsp)
	.seh_savexmm	%xmm6, 48
	.seh_endprologue
	movq	176(%rsp), %rax
	movq	184(%rsp), %rbp
	movq	%rdx, %r15
	movq	%rcx, %r13
	movq	%r8, %r14
	movq	%rcx, %rdi
	movq	192(%rsp), %rdx
	movq	%r15, %rbx
	movq	%r8, %rsi
	cmpq	%rax, %r9
	jle	.L1570
	cmpq	%rdx, %rax
	jg	.L1570
	movq	%rcx, %r12
	testq	%rax, %rax
	je	.L1584
	cmpq	%r15, %r8
	je	.L1572
	movq	%r8, %rcx
	movq	%r15, %rax
	vpxor	%xmm6, %xmm6, %xmm6
	movq	%rbp, %r12
	subq	%r15, %rcx
	andl	$8, %ecx
	jne	.L1681
	.p2align 4
	.p2align 3
.L1574:
	vmovdqu	8(%rax), %xmm2
	movq	(%rax), %rdx
	vmovdqu	48(%rax), %xmm3
	movzwl	28(%rax), %r8d
	vmovdqu	%xmm2, 8(%r12)
	movl	24(%rax), %ecx
	movq	%rdx, (%r12)
	movq	64(%r12), %rdx
	movl	%ecx, 24(%r12)
	movq	32(%rax), %r9
	movq	48(%r12), %rcx
	movw	%r8w, 28(%r12)
	movq	%r9, 32(%r12)
	movl	40(%rax), %r10d
	vmovdqu	%xmm3, 48(%r12)
	movq	64(%rax), %r11
	movl	%r10d, 40(%r12)
	movq	%r11, 64(%r12)
	movq	$0, 64(%rax)
	vmovdqu	%xmm6, 48(%rax)
	testq	%rcx, %rcx
	je	.L1573
	subq	%rcx, %rdx
	movq	%rax, 32(%rsp)
	call	_ZdlPvy
	movq	32(%rsp), %rax
.L1573:
	leaq	72(%rax), %r8
	vmovdqu	8(%r8), %xmm4
	movq	72(%rax), %rax
	leaq	72(%r12), %r9
	vmovdqu	48(%r8), %xmm5
	movzwl	28(%r8), %edx
	movq	%rax, 72(%r12)
	vmovdqu	%xmm4, 8(%r9)
	movl	24(%r8), %r12d
	movw	%dx, 28(%r9)
	movq	64(%r9), %rdx
	movl	%r12d, 24(%r9)
	movq	32(%r8), %rcx
	movq	%rcx, 32(%r9)
	movq	48(%r9), %rcx
	movl	40(%r8), %r10d
	vmovdqu	%xmm5, 48(%r9)
	movq	64(%r8), %r11
	movl	%r10d, 40(%r9)
	movq	%r11, 64(%r9)
	movq	$0, 64(%r8)
	vmovdqu	%xmm6, 48(%r8)
	testq	%rcx, %rcx
	je	.L1651
	subq	%rcx, %rdx
	movq	%r8, 40(%rsp)
	movq	%r9, 32(%rsp)
	call	_ZdlPvy
	movq	40(%rsp), %r8
	movq	32(%rsp), %r9
.L1651:
	leaq	72(%r8), %rax
	leaq	72(%r9), %r12
	cmpq	%r14, %rax
	jne	.L1574
.L1694:
	cmpq	%r13, %r15
	je	.L1578
.L1576:
	movq	%r15, %rdx
	vpxor	%xmm6, %xmm6, %xmm6
	subq	%r13, %rdx
	testb	$8, %dl
	jne	.L1683
	.p2align 4
	.p2align 3
.L1580:
	movq	-72(%rbx), %rcx
	leaq	-72(%rbx), %r15
	leaq	-72(%rsi), %r14
	movq	64(%r14), %rdx
	vmovdqu	8(%r15), %xmm2
	vmovdqu	48(%r15), %xmm3
	movq	%rcx, -72(%rsi)
	movzwl	28(%r15), %r11d
	vmovdqu	%xmm2, 8(%r14)
	movl	24(%r15), %r10d
	movq	48(%r14), %rcx
	movw	%r11w, 28(%r14)
	movl	%r10d, 24(%r14)
	movq	32(%r15), %r8
	movq	%r8, 32(%r14)
	movl	40(%r15), %esi
	vmovdqu	%xmm3, 48(%r14)
	movq	64(%r15), %rbx
	movl	%esi, 40(%r14)
	movq	%rbx, 64(%r14)
	movq	$0, 64(%r15)
	vmovdqu	%xmm6, 48(%r15)
	testq	%rcx, %rcx
	je	.L1579
	subq	%rcx, %rdx
	call	_ZdlPvy
.L1579:
	movq	-72(%r15), %r9
	leaq	-72(%r15), %rbx
	leaq	-72(%r14), %rsi
	movq	%r9, -72(%r14)
.L1698:
	vmovdqu	8(%rbx), %xmm0
	movzwl	28(%rbx), %ecx
	vmovdqu	48(%rbx), %xmm1
	movq	64(%rsi), %rdx
	vmovdqu	%xmm0, 8(%rsi)
	movl	24(%rbx), %r14d
	movw	%cx, 28(%rsi)
	movq	48(%rsi), %rcx
	movl	%r14d, 24(%rsi)
	movq	32(%rbx), %r10
	movq	%r10, 32(%rsi)
	movl	40(%rbx), %r11d
	vmovdqu	%xmm1, 48(%rsi)
	movq	64(%rbx), %r8
	movl	%r11d, 40(%rsi)
	movq	%r8, 64(%rsi)
	movq	$0, 64(%rbx)
	vmovdqu	%xmm6, 48(%rbx)
	testq	%rcx, %rcx
	je	.L1646
	subq	%rcx, %rdx
	call	_ZdlPvy
.L1646:
	cmpq	%r13, %rbx
	jne	.L1580
.L1578:
	cmpq	%r12, %rbp
	je	.L1583
	movq	%r12, %r9
	vpxor	%xmm6, %xmm6, %xmm6
	subq	%rbp, %r9
	testb	$8, %r9b
	jne	.L1685
	.p2align 4
	.p2align 3
.L1582:
	vmovdqu	8(%rbp), %xmm4
	movq	0(%rbp), %r13
	movzwl	28(%rbp), %ecx
	vmovdqu	48(%rbp), %xmm5
	vmovdqu	%xmm4, 8(%rdi)
	movl	24(%rbp), %r14d
	movq	64(%rdi), %rdx
	movw	%cx, 28(%rdi)
	movq	48(%rdi), %rcx
	movl	%r14d, 24(%rdi)
	movq	32(%rbp), %r10
	movq	%r13, (%rdi)
	movq	%r10, 32(%rdi)
	movl	40(%rbp), %r11d
	vmovdqu	%xmm5, 48(%rdi)
	movq	64(%rbp), %r8
	movl	%r11d, 40(%rdi)
	movq	%r8, 64(%rdi)
	movq	$0, 64(%rbp)
	vmovdqu	%xmm6, 48(%rbp)
	testq	%rcx, %rcx
	je	.L1581
	subq	%rcx, %rdx
	call	_ZdlPvy
.L1581:
	leaq	72(%rbp), %rbx
	movq	72(%rbp), %rbp
	leaq	72(%rdi), %rsi
	movq	48(%rsi), %rcx
	vmovdqu	8(%rbx), %xmm0
	vmovdqu	48(%rbx), %xmm1
	movq	%rbp, 72(%rdi)
	movzwl	28(%rbx), %edi
	vmovdqu	%xmm0, 8(%rsi)
	movl	24(%rbx), %r9d
	movw	%di, 28(%rsi)
	movl	%r9d, 24(%rsi)
	movq	32(%rbx), %rax
	movq	%rax, 32(%rsi)
	movl	40(%rbx), %edx
	vmovdqu	%xmm1, 48(%rsi)
	movq	64(%rbx), %r15
	movl	%edx, 40(%rsi)
	movq	64(%rsi), %rdx
	movq	%r15, 64(%rsi)
	movq	$0, 64(%rbx)
	vmovdqu	%xmm6, 48(%rbx)
	testq	%rcx, %rcx
	je	.L1641
	subq	%rcx, %rdx
	call	_ZdlPvy
.L1641:
	leaq	72(%rbx), %rbp
	leaq	72(%rsi), %rdi
	cmpq	%rbp, %r12
	jne	.L1582
.L1583:
	movq	%rdi, %r12
.L1584:
	vmovups	48(%rsp), %xmm6
	movq	%r12, %rax
	addq	$72, %rsp
	popq	%rbx
	popq	%rsi
	popq	%rdi
	popq	%rbp
	popq	%r12
	popq	%r13
	popq	%r14
	popq	%r15
	ret
	.p2align 4,,10
	.p2align 3
.L1570:
	cmpq	%rdx, %r9
	jg	.L1585
	movq	%r14, %r12
	testq	%r9, %r9
	je	.L1584
	cmpq	%r13, %r15
	je	.L1587
	movq	%r15, %rdx
	movq	%r13, %rax
	vpxor	%xmm6, %xmm6, %xmm6
	movq	%rbp, %r12
	subq	%r13, %rdx
	andl	$8, %edx
	je	.L1589
	vmovdqu	8(%r13), %xmm4
	movq	0(%r13), %r12
	movzwl	28(%r13), %ecx
	vmovdqu	48(%r13), %xmm5
	vmovdqu	%xmm4, 8(%rbp)
	movl	24(%r13), %eax
	movq	64(%rbp), %rdx
	movw	%cx, 28(%rbp)
	movq	48(%rbp), %rcx
	movl	%eax, 24(%rbp)
	movq	32(%r13), %r10
	movq	%r12, 0(%rbp)
	movq	%r10, 32(%rbp)
	movl	40(%r13), %r11d
	vmovdqu	%xmm5, 48(%rbp)
	movq	64(%r13), %r8
	movl	%r11d, 40(%rbp)
	movq	%r8, 64(%rbp)
	movq	$0, 64(%r13)
	vmovdqu	%xmm6, 48(%r13)
	testq	%rcx, %rcx
	je	.L1633
	subq	%rcx, %rdx
	call	_ZdlPvy
.L1633:
	leaq	72(%r13), %rax
	leaq	72(%rbp), %r12
	cmpq	%r15, %rax
	je	.L1693
	.p2align 4
	.p2align 3
.L1589:
	vmovdqu	8(%rax), %xmm0
	movq	(%rax), %r9
	movzwl	28(%rax), %ecx
	vmovdqu	48(%rax), %xmm1
	vmovdqu	%xmm0, 8(%r12)
	movl	24(%rax), %edx
	movw	%cx, 28(%r12)
	movq	48(%r12), %rcx
	movl	%edx, 24(%r12)
	movq	32(%rax), %r10
	movq	64(%r12), %rdx
	movq	%r9, (%r12)
	movq	%r10, 32(%r12)
	movl	40(%rax), %r11d
	vmovdqu	%xmm1, 48(%r12)
	movq	64(%rax), %r8
	movl	%r11d, 40(%r12)
	movq	%r8, 64(%r12)
	movq	$0, 64(%rax)
	vmovdqu	%xmm6, 48(%rax)
	testq	%rcx, %rcx
	je	.L1588
	subq	%rcx, %rdx
	movq	%rax, 32(%rsp)
	call	_ZdlPvy
	movq	32(%rsp), %rax
.L1588:
	leaq	72(%rax), %r8
	vmovdqu	8(%r8), %xmm2
	movq	72(%rax), %rax
	leaq	72(%r12), %r9
	vmovdqu	48(%r8), %xmm3
	movzwl	28(%r8), %edx
	movq	%rax, 72(%r12)
	vmovdqu	%xmm2, 8(%r9)
	movl	24(%r8), %r12d
	movw	%dx, 28(%r9)
	movq	64(%r9), %rdx
	movl	%r12d, 24(%r9)
	movq	32(%r8), %rcx
	movq	%rcx, 32(%r9)
	movq	48(%r9), %rcx
	movl	40(%r8), %r10d
	vmovdqu	%xmm3, 48(%r9)
	movq	64(%r8), %r11
	movl	%r10d, 40(%r9)
	movq	%r11, 64(%r9)
	movq	$0, 64(%r8)
	vmovdqu	%xmm6, 48(%r8)
	testq	%rcx, %rcx
	je	.L1636
	subq	%rcx, %rdx
	movq	%r8, 40(%rsp)
	movq	%r9, 32(%rsp)
	call	_ZdlPvy
	movq	40(%rsp), %r8
	movq	32(%rsp), %r9
.L1636:
	leaq	72(%r8), %rax
	leaq	72(%r9), %r12
	cmpq	%r15, %rax
	jne	.L1589
.L1693:
	cmpq	%r15, %r14
	je	.L1593
.L1591:
	movq	%r14, %rdx
	vpxor	%xmm6, %xmm6, %xmm6
	subq	%r15, %rdx
	testb	$8, %dl
	je	.L1595
	vmovdqu	8(%r15), %xmm4
	movq	(%r15), %rdi
	movzwl	28(%r15), %ecx
	vmovdqu	48(%r15), %xmm5
	vmovdqu	%xmm4, 8(%r13)
	movl	24(%r15), %ebx
	movq	64(%r13), %rdx
	movw	%cx, 28(%r13)
	movq	48(%r13), %rcx
	movl	%ebx, 24(%r13)
	movq	32(%r15), %r10
	movq	%rdi, 0(%r13)
	movq	%r10, 32(%r13)
	movl	40(%r15), %r11d
	vmovdqu	%xmm5, 48(%r13)
	movq	64(%r15), %r8
	movl	%r11d, 40(%r13)
	movq	%r8, 64(%r13)
	movq	$0, 64(%r15)
	vmovdqu	%xmm6, 48(%r15)
	testq	%rcx, %rcx
	je	.L1628
	subq	%rcx, %rdx
	call	_ZdlPvy
.L1628:
	leaq	72(%r15), %rbx
	leaq	72(%r13), %rdi
	cmpq	%r14, %rbx
	je	.L1593
	.p2align 4
	.p2align 3
.L1595:
	vmovdqu	8(%rbx), %xmm0
	movq	(%rbx), %r13
	vmovdqu	48(%rbx), %xmm1
	movzwl	28(%rbx), %r9d
	vmovdqu	%xmm0, 8(%rdi)
	movl	24(%rbx), %r15d
	movq	48(%rdi), %rcx
	movq	%r13, (%rdi)
	movl	%r15d, 24(%rdi)
	movq	32(%rbx), %rax
	movw	%r9w, 28(%rdi)
	movq	%rax, 32(%rdi)
	movl	40(%rbx), %edx
	vmovdqu	%xmm1, 48(%rdi)
	movq	64(%rbx), %r10
	movl	%edx, 40(%rdi)
	movq	64(%rdi), %rdx
	movq	%r10, 64(%rdi)
	movq	$0, 64(%rbx)
	vmovdqu	%xmm6, 48(%rbx)
	testq	%rcx, %rcx
	je	.L1594
	subq	%rcx, %rdx
	call	_ZdlPvy
.L1594:
	leaq	72(%rbx), %r13
	vmovdqu	8(%r13), %xmm2
	movq	72(%rbx), %rbx
	leaq	72(%rdi), %r15
	movzwl	28(%r13), %ecx
	vmovdqu	48(%r13), %xmm3
	movq	%rbx, 72(%rdi)
	movq	64(%r15), %rdx
	vmovdqu	%xmm2, 8(%r15)
	movl	24(%r13), %edi
	movw	%cx, 28(%r15)
	movq	48(%r15), %rcx
	movl	%edi, 24(%r15)
	movq	32(%r13), %r11
	movq	%r11, 32(%r15)
	movl	40(%r13), %r8d
	vmovdqu	%xmm3, 48(%r15)
	movq	64(%r13), %r9
	movl	%r8d, 40(%r15)
	movq	%r9, 64(%r15)
	movq	$0, 64(%r13)
	vmovdqu	%xmm6, 48(%r13)
	testq	%rcx, %rcx
	je	.L1631
	subq	%rcx, %rdx
	call	_ZdlPvy
.L1631:
	leaq	72(%r13), %rbx
	leaq	72(%r15), %rdi
	cmpq	%r14, %rbx
	jne	.L1595
.L1593:
	cmpq	%r12, %rbp
	je	.L1598
	movq	%r12, %rax
	vpxor	%xmm6, %xmm6, %xmm6
	subq	%rbp, %rax
	testb	$8, %al
	je	.L1597
	subq	$72, %r12
	leaq	-72(%r14), %rsi
	movq	(%r12), %r14
	movq	%r14, (%rsi)
	jmp	.L1696
	.p2align 4,,10
	.p2align 3
.L1597:
	movq	-72(%r12), %rcx
	leaq	-72(%rsi), %r14
	vmovdqu	-64(%r12), %xmm0
	leaq	-72(%r12), %rdi
	vmovdqu	48(%rdi), %xmm1
	movzwl	28(%rdi), %r11d
	movq	%rcx, -72(%rsi)
	movq	48(%r14), %rcx
	vmovdqu	%xmm0, 8(%r14)
	movl	24(%rdi), %esi
	movq	64(%r14), %rdx
	movw	%r11w, 28(%r14)
	movl	%esi, 24(%r14)
	movq	32(%rdi), %r8
	movq	%r8, 32(%r14)
	movl	40(%rdi), %r9d
	vmovdqu	%xmm1, 48(%r14)
	movq	64(%rdi), %rax
	movl	%r9d, 40(%r14)
	movq	%rax, 64(%r14)
	movq	$0, 64(%rdi)
	vmovdqu	%xmm6, 48(%rdi)
	testq	%rcx, %rcx
	je	.L1596
	subq	%rcx, %rdx
	call	_ZdlPvy
.L1596:
	movq	-72(%rdi), %rdx
	leaq	-72(%rdi), %r12
	leaq	-72(%r14), %rsi
	movq	%rdx, -72(%r14)
.L1696:
	vmovdqu	8(%r12), %xmm4
	vmovdqu	48(%r12), %xmm5
	movzwl	28(%r12), %r10d
	movq	48(%rsi), %rcx
	vmovdqu	%xmm4, 8(%rsi)
	movl	24(%r12), %edx
	movw	%r10w, 28(%rsi)
	movl	%edx, 24(%rsi)
	movq	32(%r12), %r15
	movq	64(%rsi), %rdx
	movq	%r15, 32(%rsi)
	movl	40(%r12), %r13d
	vmovdqu	%xmm5, 48(%rsi)
	movq	64(%r12), %rbx
	movl	%r13d, 40(%rsi)
	movq	%rbx, 64(%rsi)
	movq	$0, 64(%r12)
	vmovdqu	%xmm6, 48(%r12)
	testq	%rcx, %rcx
	je	.L1626
	subq	%rcx, %rdx
	call	_ZdlPvy
.L1626:
	cmpq	%r12, %rbp
	jne	.L1597
.L1598:
	movq	%rsi, %r12
	jmp	.L1584
	.p2align 4,,10
	.p2align 3
.L1585:
	vmovups	48(%rsp), %xmm6
	movq	%r14, %r8
	movq	%r15, %rdx
	movq	%r13, %rcx
	addq	$72, %rsp
	popq	%rbx
	popq	%rsi
	popq	%rdi
	popq	%rbp
	popq	%r12
	popq	%r13
	popq	%r14
	popq	%r15
	jmp	_ZNSt3_V28__rotateIN9__gnu_cxx17__normal_iteratorIPN9Stockfish6Search8RootMoveESt6vectorIS5_SaIS5_EEEEEET_SB_SB_SB_St26random_access_iterator_tag.isra.0
	.p2align 4,,10
	.p2align 3
.L1685:
	vmovdqu	8(%rbp), %xmm2
	movq	0(%rbp), %rdi
	vmovdqu	48(%rbp), %xmm3
	movzwl	28(%rbp), %edx
	vmovdqu	%xmm2, 8(%r13)
	movl	24(%rbp), %eax
	movq	48(%r13), %rcx
	movw	%dx, 28(%r13)
	movq	64(%r13), %rdx
	movl	%eax, 24(%r13)
	movq	32(%rbp), %rbx
	movq	%rdi, 0(%r13)
	movq	%rbx, 32(%r13)
	movl	40(%rbp), %esi
	vmovdqu	%xmm3, 48(%r13)
	movq	64(%rbp), %r15
	movl	%esi, 40(%r13)
	movq	%r15, 64(%r13)
	movq	$0, 64(%rbp)
	vmovdqu	%xmm6, 48(%rbp)
	testq	%rcx, %rcx
	je	.L1638
	subq	%rcx, %rdx
	call	_ZdlPvy
.L1638:
	addq	$72, %rbp
	leaq	72(%r13), %rdi
	cmpq	%rbp, %r12
	jne	.L1582
	jmp	.L1583
	.p2align 4,,10
	.p2align 3
.L1681:
	vmovdqu	8(%r15), %xmm0
	movq	(%r15), %r8
	vmovdqu	48(%r15), %xmm1
	movzwl	28(%r15), %r10d
	vmovdqu	%xmm0, 8(%rbp)
	movl	24(%r15), %r9d
	movq	48(%rbp), %rcx
	movq	64(%rbp), %rdx
	movq	%r8, 0(%rbp)
	movl	%r9d, 24(%rbp)
	movq	32(%r15), %r11
	movw	%r10w, 28(%rbp)
	movq	%r11, 32(%rbp)
	movl	40(%r15), %r12d
	vmovdqu	%xmm1, 48(%rbp)
	movq	64(%r15), %rax
	movl	%r12d, 40(%rbp)
	movq	%rax, 64(%rbp)
	movq	$0, 64(%r15)
	vmovdqu	%xmm6, 48(%r15)
	testq	%rcx, %rcx
	je	.L1648
	subq	%rcx, %rdx
	call	_ZdlPvy
.L1648:
	leaq	72(%r15), %rax
	leaq	72(%rbp), %r12
	cmpq	%r14, %rax
	jne	.L1574
	jmp	.L1694
	.p2align 4,,10
	.p2align 3
.L1683:
	leaq	-72(%r15), %rbx
	leaq	-72(%r14), %rsi
	movq	(%rbx), %r15
	movq	%r15, (%rsi)
	jmp	.L1698
	.p2align 4,,10
	.p2align 3
.L1572:
	movq	%rbp, %r12
	cmpq	%rcx, %r8
	jne	.L1576
	jmp	.L1583
.L1587:
	movq	%rbp, %r12
	cmpq	%r15, %r14
	jne	.L1591
	jmp	.L1598
	.seh_endproc
	.p2align 4
	.def	_ZSt12__move_mergeIPN9Stockfish6Search8RootMoveEN9__gnu_cxx17__normal_iteratorIS3_St6vectorIS2_SaIS2_EEEENS4_5__ops15_Iter_less_iterEET0_T_SD_SD_SD_SC_T1_.isra.0;	.scl	3;	.type	32;	.endef
	.seh_proc	_ZSt12__move_mergeIPN9Stockfish6Search8RootMoveEN9__gnu_cxx17__normal_iteratorIS3_St6vectorIS2_SaIS2_EEEENS4_5__ops15_Iter_less_iterEET0_T_SD_SD_SD_SC_T1_.isra.0
_ZSt12__move_mergeIPN9Stockfish6Search8RootMoveEN9__gnu_cxx17__normal_iteratorIS3_St6vectorIS2_SaIS2_EEEENS4_5__ops15_Iter_less_iterEET0_T_SD_SD_SD_SC_T1_.isra.0:
	pushq	%r14
	.seh_pushreg	%r14
	pushq	%r13
	.seh_pushreg	%r13
	pushq	%r12
	.seh_pushreg	%r12
	pushq	%rbp
	.seh_pushreg	%rbp
	pushq	%rdi
	.seh_pushreg	%rdi
	pushq	%rsi
	.seh_pushreg	%rsi
	pushq	%rbx
	.seh_pushreg	%rbx
	subq	$48, %rsp
	.seh_stackalloc	48
	vmovups	%xmm6, 32(%rsp)
	.seh_savexmm	%xmm6, 32
	.seh_endprologue
	movq	144(%rsp), %rbx
	movq	%rcx, %rsi
	movq	%rdx, %r14
	movq	%r8, %rdi
	movq	%r9, %r13
	cmpq	%rcx, %rdx
	je	.L1709
	cmpq	%r8, %r9
	je	.L1700
	vpxor	%xmm6, %xmm6, %xmm6
	jmp	.L1707
	.p2align 4,,10
	.p2align 3
.L1760:
	jl	.L1759
.L1702:
	vmovd	16(%rsi), %xmm4
	vmovd	%eax, %xmm5
	movq	(%rsi), %rbp
	vpinsrd	$1, 20(%rsi), %xmm4, %xmm1
	vpinsrd	$1, 12(%rsi), %xmm5, %xmm0
	vmovdqu	48(%rsi), %xmm3
	movzwl	28(%rsi), %r9d
	movq	%rbp, (%rbx)
	vpunpcklqdq	%xmm1, %xmm0, %xmm2
	movq	48(%rbx), %rcx
	movq	64(%rbx), %rdx
	vmovdqu	%xmm2, 8(%rbx)
	movl	24(%rsi), %r8d
	movw	%r9w, 28(%rbx)
	movl	%r8d, 24(%rbx)
	movq	32(%rsi), %r10
	movq	%r10, 32(%rbx)
	movl	40(%rsi), %r11d
	vmovdqu	%xmm3, 48(%rbx)
	movq	64(%rsi), %r12
	movl	%r11d, 40(%rbx)
	movq	%r12, 64(%rbx)
	movq	$0, 64(%rsi)
	vmovdqu	%xmm6, 48(%rsi)
	testq	%rcx, %rcx
	je	.L1706
	subq	%rcx, %rdx
	call	_ZdlPvy
.L1706:
	addq	$72, %rsi
	addq	$72, %rbx
	cmpq	%rsi, %r14
	je	.L1709
.L1761:
	cmpq	%rdi, %r13
	je	.L1700
.L1707:
	movl	8(%rsi), %eax
	movl	8(%rdi), %edx
	cmpl	%edx, %eax
	jne	.L1760
	movl	12(%rdi), %ecx
	cmpl	%ecx, 12(%rsi)
	jge	.L1702
.L1703:
	vmovd	16(%rdi), %xmm4
	vmovd	%edx, %xmm5
	movq	(%rdi), %rax
	vpinsrd	$1, 20(%rdi), %xmm4, %xmm1
	vpinsrd	$1, %ecx, %xmm5, %xmm0
	vmovdqu	48(%rdi), %xmm3
	movzwl	28(%rdi), %ecx
	movq	%rax, (%rbx)
	vpunpcklqdq	%xmm1, %xmm0, %xmm2
	vmovdqu	%xmm2, 8(%rbx)
	movl	24(%rdi), %edx
	movw	%cx, 28(%rbx)
	movq	48(%rbx), %rcx
	movl	%edx, 24(%rbx)
	movq	32(%rdi), %rbp
	movq	64(%rbx), %rdx
	movq	%rbp, 32(%rbx)
	movl	40(%rdi), %r8d
	vmovdqu	%xmm3, 48(%rbx)
	movq	64(%rdi), %r9
	movl	%r8d, 40(%rbx)
	movq	%r9, 64(%rbx)
	movq	$0, 64(%rdi)
	vmovdqu	%xmm6, 48(%rdi)
	testq	%rcx, %rcx
	je	.L1704
	subq	%rcx, %rdx
	call	_ZdlPvy
.L1704:
	addq	$72, %rdi
	addq	$72, %rbx
	cmpq	%rsi, %r14
	jne	.L1761
.L1709:
	cmpq	%rdi, %r13
	je	.L1712
	movq	%r13, %r14
	vpxor	%xmm6, %xmm6, %xmm6
	subq	%rdi, %r14
	testb	$8, %r14b
	jne	.L1757
	.p2align 4
	.p2align 3
.L1714:
	vmovdqu	8(%rdi), %xmm5
	movq	(%rdi), %rdx
	vmovdqu	48(%rdi), %xmm0
	movzwl	28(%rdi), %r9d
	vmovdqu	%xmm5, 8(%rbx)
	movl	24(%rdi), %ecx
	movq	%rdx, (%rbx)
	movq	64(%rbx), %rdx
	movl	%ecx, 24(%rbx)
	movq	32(%rdi), %rsi
	movq	48(%rbx), %rcx
	movw	%r9w, 28(%rbx)
	movq	%rsi, 32(%rbx)
	movl	40(%rdi), %r14d
	vmovdqu	%xmm0, 48(%rbx)
	movq	64(%rdi), %r10
	movl	%r14d, 40(%rbx)
	movq	%r10, 64(%rbx)
	movq	$0, 64(%rdi)
	vmovdqu	%xmm6, 48(%rdi)
	testq	%rcx, %rcx
	je	.L1713
	subq	%rcx, %rdx
	call	_ZdlPvy
.L1713:
	leaq	72(%rdi), %rbp
	vmovdqu	8(%rbp), %xmm2
	movq	72(%rdi), %rdi
	leaq	72(%rbx), %r12
	vmovdqu	48(%rbp), %xmm3
	movzwl	28(%rbp), %r11d
	movq	48(%r12), %rcx
	movq	64(%r12), %rdx
	movq	%rdi, 72(%rbx)
	vmovdqu	%xmm2, 8(%r12)
	movl	24(%rbp), %ebx
	movw	%r11w, 28(%r12)
	movl	%ebx, 24(%r12)
	movq	32(%rbp), %rax
	movq	%rax, 32(%r12)
	movl	40(%rbp), %r8d
	vmovdqu	%xmm3, 48(%r12)
	movq	64(%rbp), %r9
	movl	%r8d, 40(%r12)
	movq	%r9, 64(%r12)
	movq	$0, 64(%rbp)
	vmovdqu	%xmm6, 48(%rbp)
	testq	%rcx, %rcx
	je	.L1735
	subq	%rcx, %rdx
	call	_ZdlPvy
.L1735:
	leaq	72(%rbp), %rdi
	leaq	72(%r12), %rbx
	cmpq	%rdi, %r13
	jne	.L1714
.L1712:
	vmovups	32(%rsp), %xmm6
	movq	%rbx, %rax
	addq	$48, %rsp
	popq	%rbx
	popq	%rsi
	popq	%rdi
	popq	%rbp
	popq	%r12
	popq	%r13
	popq	%r14
	ret
	.p2align 4,,10
	.p2align 3
.L1759:
	movl	12(%rdi), %ecx
	jmp	.L1703
	.p2align 4,,10
	.p2align 3
.L1700:
	cmpq	%rsi, %r14
	je	.L1709
	movq	%r14, %r10
	vpxor	%xmm6, %xmm6, %xmm6
	subq	%rsi, %r10
	testb	$8, %r10b
	jne	.L1755
	.p2align 4
	.p2align 3
.L1711:
	vmovdqu	8(%rsi), %xmm5
	movq	(%rsi), %r8
	vmovdqu	48(%rsi), %xmm0
	movzwl	28(%rsi), %r10d
	vmovdqu	%xmm5, 8(%rbx)
	movl	24(%rsi), %r9d
	movq	48(%rbx), %rcx
	movq	64(%rbx), %rdx
	movq	%r8, (%rbx)
	movl	%r9d, 24(%rbx)
	movq	32(%rsi), %r11
	movw	%r10w, 28(%rbx)
	movq	%r11, 32(%rbx)
	movl	40(%rsi), %r12d
	vmovdqu	%xmm0, 48(%rbx)
	movq	64(%rsi), %rax
	movl	%r12d, 40(%rbx)
	movq	%rax, 64(%rbx)
	movq	$0, 64(%rsi)
	vmovdqu	%xmm6, 48(%rsi)
	testq	%rcx, %rcx
	je	.L1710
	subq	%rcx, %rdx
	call	_ZdlPvy
.L1710:
	leaq	72(%rsi), %rbp
	vmovdqu	8(%rbp), %xmm2
	movq	72(%rsi), %rsi
	leaq	72(%rbx), %r12
	vmovdqu	48(%rbp), %xmm3
	movzwl	28(%rbp), %edx
	movq	%rsi, 72(%rbx)
	vmovdqu	%xmm2, 8(%r12)
	movl	24(%rbp), %ebx
	movw	%dx, 28(%r12)
	movq	64(%r12), %rdx
	movl	%ebx, 24(%r12)
	movq	32(%rbp), %rcx
	movq	%rcx, 32(%r12)
	movq	48(%r12), %rcx
	movl	40(%rbp), %r8d
	vmovdqu	%xmm3, 48(%r12)
	movq	64(%rbp), %r9
	movl	%r8d, 40(%r12)
	movq	%r9, 64(%r12)
	movq	$0, 64(%rbp)
	vmovdqu	%xmm6, 48(%rbp)
	testq	%rcx, %rcx
	je	.L1740
	subq	%rcx, %rdx
	call	_ZdlPvy
.L1740:
	leaq	72(%rbp), %rsi
	leaq	72(%r12), %rbx
	cmpq	%rsi, %r14
	jne	.L1711
	jmp	.L1709
	.p2align 4,,10
	.p2align 3
.L1755:
	vmovdqu	8(%rsi), %xmm4
	movq	(%rsi), %r11
	movzwl	28(%rsi), %eax
	vmovdqu	48(%rsi), %xmm1
	vmovdqu	%xmm4, 8(%rbx)
	movl	24(%rsi), %r12d
	movq	%r11, (%rbx)
	movl	%r12d, 24(%rbx)
	movq	32(%rsi), %rdx
	movw	%ax, 28(%rbx)
	movq	%rdx, 32(%rbx)
	movl	40(%rsi), %ecx
	movq	64(%rbx), %rdx
	movl	%ecx, 40(%rbx)
	movq	48(%rbx), %rcx
	vmovdqu	%xmm1, 48(%rbx)
	movq	64(%rsi), %rbp
	movq	%rbp, 64(%rbx)
	movq	$0, 64(%rsi)
	vmovdqu	%xmm6, 48(%rsi)
	testq	%rcx, %rcx
	je	.L1737
	subq	%rcx, %rdx
	call	_ZdlPvy
.L1737:
	addq	$72, %rsi
	addq	$72, %rbx
	cmpq	%rsi, %r14
	jne	.L1711
	jmp	.L1709
	.p2align 4,,10
	.p2align 3
.L1757:
	vmovdqu	8(%rdi), %xmm4
	movq	(%rdi), %r10
	vmovdqu	48(%rdi), %xmm1
	movzwl	28(%rdi), %eax
	vmovdqu	%xmm4, 8(%rbx)
	movl	24(%rdi), %r11d
	movq	48(%rbx), %rcx
	movq	64(%rbx), %rdx
	movq	%r10, (%rbx)
	movl	%r11d, 24(%rbx)
	movq	32(%rdi), %r12
	movw	%ax, 28(%rbx)
	movq	%r12, 32(%rbx)
	movl	40(%rdi), %ebp
	vmovdqu	%xmm1, 48(%rbx)
	movq	64(%rdi), %r8
	movl	%ebp, 40(%rbx)
	movq	%r8, 64(%rbx)
	movq	$0, 64(%rdi)
	vmovdqu	%xmm6, 48(%rdi)
	testq	%rcx, %rcx
	je	.L1732
	subq	%rcx, %rdx
	call	_ZdlPvy
.L1732:
	addq	$72, %rdi
	addq	$72, %rbx
	cmpq	%rdi, %r13
	jne	.L1714
	jmp	.L1712
	.seh_endproc
	.p2align 4
	.def	_ZSt24__merge_sort_with_bufferIN9__gnu_cxx17__normal_iteratorIPN9Stockfish6Search8RootMoveESt6vectorIS4_SaIS4_EEEES5_NS0_5__ops15_Iter_less_iterEEvT_SC_T0_T1_.isra.0;	.scl	3;	.type	32;	.endef
	.seh_proc	_ZSt24__merge_sort_with_bufferIN9__gnu_cxx17__normal_iteratorIPN9Stockfish6Search8RootMoveESt6vectorIS4_SaIS4_EEEES5_NS0_5__ops15_Iter_less_iterEEvT_SC_T0_T1_.isra.0
_ZSt24__merge_sort_with_bufferIN9__gnu_cxx17__normal_iteratorIPN9Stockfish6Search8RootMoveESt6vectorIS4_SaIS4_EEEES5_NS0_5__ops15_Iter_less_iterEEvT_SC_T0_T1_.isra.0:
	pushq	%r15
	.seh_pushreg	%r15
	pushq	%r14
	.seh_pushreg	%r14
	pushq	%r13
	.seh_pushreg	%r13
	pushq	%r12
	.seh_pushreg	%r12
	pushq	%rbp
	.seh_pushreg	%rbp
	pushq	%rdi
	.seh_pushreg	%rdi
	pushq	%rsi
	.seh_pushreg	%rsi
	pushq	%rbx
	.seh_pushreg	%rbx
	subq	$152, %rsp
	.seh_stackalloc	152
	vmovups	%xmm6, 128(%rsp)
	.seh_savexmm	%xmm6, 128
	.seh_endprologue
	movq	%rdx, %rdi
	movq	%rcx, 88(%rsp)
	movq	%rdx, %r12
	subq	%rcx, %rdi
	movq	%r8, 96(%rsp)
	cmpq	$432, %rdi
	jle	.L1763
	leaq	-433(%rdi), %rdx
	leaq	504(%rcx), %r13
	movabsq	$2342443691899625603, %rax
	shrq	$3, %rdx
	mulq	%rdx
	shrq	$3, %rdx
	movq	%rdx, %rsi
	movq	%r13, %rdx
	call	_ZSt16__insertion_sortIN9__gnu_cxx17__normal_iteratorIPN9Stockfish6Search8RootMoveESt6vectorIS4_SaIS4_EEEENS0_5__ops15_Iter_less_iterEEvT_SC_T0_.isra.0
	movq	%r12, %rcx
	andl	$7, %esi
	subq	%r13, %rcx
	cmpq	$432, %rcx
	jle	.L1924
	testq	%rsi, %rsi
	je	.L1764
	cmpq	$1, %rsi
	je	.L1889
	cmpq	$2, %rsi
	je	.L1890
	cmpq	$3, %rsi
	je	.L1891
	cmpq	$4, %rsi
	je	.L1892
	cmpq	$5, %rsi
	je	.L1893
	cmpq	$6, %rsi
	je	.L1894
	movq	88(%rsp), %rbp
	movq	%r13, %rcx
	leaq	1008(%rbp), %r13
	movq	%r13, %rdx
	call	_ZSt16__insertion_sortIN9__gnu_cxx17__normal_iteratorIPN9Stockfish6Search8RootMoveESt6vectorIS4_SaIS4_EEEENS0_5__ops15_Iter_less_iterEEvT_SC_T0_.isra.0
.L1894:
	movq	%r13, %rcx
	addq	$504, %r13
	movq	%r13, %rdx
	call	_ZSt16__insertion_sortIN9__gnu_cxx17__normal_iteratorIPN9Stockfish6Search8RootMoveESt6vectorIS4_SaIS4_EEEENS0_5__ops15_Iter_less_iterEEvT_SC_T0_.isra.0
.L1893:
	movq	%r13, %rcx
	addq	$504, %r13
	movq	%r13, %rdx
	call	_ZSt16__insertion_sortIN9__gnu_cxx17__normal_iteratorIPN9Stockfish6Search8RootMoveESt6vectorIS4_SaIS4_EEEENS0_5__ops15_Iter_less_iterEEvT_SC_T0_.isra.0
.L1892:
	movq	%r13, %rcx
	addq	$504, %r13
	movq	%r13, %rdx
	call	_ZSt16__insertion_sortIN9__gnu_cxx17__normal_iteratorIPN9Stockfish6Search8RootMoveESt6vectorIS4_SaIS4_EEEENS0_5__ops15_Iter_less_iterEEvT_SC_T0_.isra.0
.L1891:
	movq	%r13, %rcx
	addq	$504, %r13
	movq	%r13, %rdx
	call	_ZSt16__insertion_sortIN9__gnu_cxx17__normal_iteratorIPN9Stockfish6Search8RootMoveESt6vectorIS4_SaIS4_EEEENS0_5__ops15_Iter_less_iterEEvT_SC_T0_.isra.0
.L1890:
	movq	%r13, %rcx
	addq	$504, %r13
	movq	%r13, %rdx
	call	_ZSt16__insertion_sortIN9__gnu_cxx17__normal_iteratorIPN9Stockfish6Search8RootMoveESt6vectorIS4_SaIS4_EEEENS0_5__ops15_Iter_less_iterEEvT_SC_T0_.isra.0
.L1889:
	movq	%r13, %rcx
	addq	$504, %r13
.L1951:
	movq	%r13, %rdx
	call	_ZSt16__insertion_sortIN9__gnu_cxx17__normal_iteratorIPN9Stockfish6Search8RootMoveESt6vectorIS4_SaIS4_EEEENS0_5__ops15_Iter_less_iterEEvT_SC_T0_.isra.0
	movq	%r12, %r8
	subq	%r13, %r8
	cmpq	$432, %r8
	jle	.L1924
.L1764:
	leaq	504(%r13), %rdx
	movq	%r13, %rcx
	leaq	1008(%r13), %rsi
	call	_ZSt16__insertion_sortIN9__gnu_cxx17__normal_iteratorIPN9Stockfish6Search8RootMoveESt6vectorIS4_SaIS4_EEEENS0_5__ops15_Iter_less_iterEEvT_SC_T0_.isra.0
	leaq	504(%r13), %rcx
	movq	%rsi, %rdx
	leaq	2016(%r13), %rbp
	call	_ZSt16__insertion_sortIN9__gnu_cxx17__normal_iteratorIPN9Stockfish6Search8RootMoveESt6vectorIS4_SaIS4_EEEENS0_5__ops15_Iter_less_iterEEvT_SC_T0_.isra.0
	leaq	1512(%r13), %rdx
	movq	%rsi, %rcx
	leaq	3024(%r13), %rbx
	call	_ZSt16__insertion_sortIN9__gnu_cxx17__normal_iteratorIPN9Stockfish6Search8RootMoveESt6vectorIS4_SaIS4_EEEENS0_5__ops15_Iter_less_iterEEvT_SC_T0_.isra.0
	leaq	1512(%r13), %rcx
	movq	%rbp, %rdx
	call	_ZSt16__insertion_sortIN9__gnu_cxx17__normal_iteratorIPN9Stockfish6Search8RootMoveESt6vectorIS4_SaIS4_EEEENS0_5__ops15_Iter_less_iterEEvT_SC_T0_.isra.0
	leaq	2520(%r13), %rdx
	movq	%rbp, %rcx
	call	_ZSt16__insertion_sortIN9__gnu_cxx17__normal_iteratorIPN9Stockfish6Search8RootMoveESt6vectorIS4_SaIS4_EEEENS0_5__ops15_Iter_less_iterEEvT_SC_T0_.isra.0
	leaq	2520(%r13), %rcx
	movq	%rbx, %rdx
	call	_ZSt16__insertion_sortIN9__gnu_cxx17__normal_iteratorIPN9Stockfish6Search8RootMoveESt6vectorIS4_SaIS4_EEEENS0_5__ops15_Iter_less_iterEEvT_SC_T0_.isra.0
	leaq	3528(%r13), %rdx
	movq	%rbx, %rcx
	call	_ZSt16__insertion_sortIN9__gnu_cxx17__normal_iteratorIPN9Stockfish6Search8RootMoveESt6vectorIS4_SaIS4_EEEENS0_5__ops15_Iter_less_iterEEvT_SC_T0_.isra.0
	leaq	3528(%r13), %rcx
	addq	$4032, %r13
	jmp	.L1951
.L1924:
	movq	%r12, %rdx
	movq	%r13, %rcx
	call	_ZSt16__insertion_sortIN9__gnu_cxx17__normal_iteratorIPN9Stockfish6Search8RootMoveESt6vectorIS4_SaIS4_EEEENS0_5__ops15_Iter_less_iterEEvT_SC_T0_.isra.0
	cmpq	$504, %rdi
	jle	.L1950
	movq	%rdi, %r10
	movq	96(%rsp), %r9
	vpxor	%xmm6, %xmm6, %xmm6
	movabsq	$-8198552921648689607, %r13
	sarq	$3, %r10
	imulq	%r13, %r10
	leaq	(%r9,%rdi), %rdi
	movq	%r10, %rsi
	movl	$7, %r10d
	leaq	(%r10,%r10), %r11
	movq	%r11, 56(%rsp)
	cmpq	%r11, %rsi
	jl	.L1808
	.p2align 4
	.p2align 3
.L1957:
	movq	%r10, %r14
	leaq	(%r10,%r10,8), %rdx
	movq	88(%rsp), %r15
	movq	%rdi, 104(%rsp)
	salq	$4, %r14
	salq	$3, %rdx
	movq	%r10, 112(%rsp)
	movq	96(%rsp), %rbx
	addq	%r11, %r14
	movq	%rsi, 120(%rsp)
	leaq	0(,%r14,8), %rbp
	movq	%r15, %r14
	cmpq	%rdx, %rbp
	setne	80(%rsp)
	addq	%rdx, %r15
	.p2align 4
	.p2align 3
.L1785:
	movq	%r14, %rsi
	addq	%rbp, %r14
	movq	%r14, %rcx
	subq	%rbp, %rcx
	cmpq	%rcx, %r15
	je	.L1811
	movq	%r15, %rdi
	cmpb	$0, 80(%rsp)
	jne	.L1769
	jmp	.L1811
	.p2align 4,,10
	.p2align 3
.L1806:
	vmovd	16(%rdi), %xmm4
	vmovd	%r11d, %xmm5
	movq	(%rdi), %rdx
	vpinsrd	$1, 20(%rdi), %xmm4, %xmm1
	vpinsrd	$1, 12(%rdi), %xmm5, %xmm0
	vmovdqu	48(%rdi), %xmm3
	movzwl	28(%rdi), %r11d
	movq	%rdx, (%rbx)
	vpunpcklqdq	%xmm1, %xmm0, %xmm2
	vmovdqu	%xmm2, 8(%rbx)
	movl	24(%rdi), %r10d
	movw	%r11w, 28(%rbx)
	movl	%r10d, 24(%rbx)
	movq	32(%rdi), %r9
	movq	%r9, 32(%rbx)
	movl	40(%rdi), %eax
	vmovdqu	%xmm3, 48(%rbx)
	movq	64(%rdi), %rdx
	movl	%eax, 40(%rbx)
	movq	%rdx, 64(%rbx)
	movq	$0, 64(%rdi)
	vmovdqu	%xmm6, 48(%rdi)
	testq	%r8, %r8
	je	.L1773
	movq	%rcx, %rdx
	movq	%r8, %rcx
	call	_ZdlPvy
.L1773:
	addq	$72, %rdi
	addq	$72, %rbx
	cmpq	%r15, %rsi
	je	.L1771
.L1953:
	cmpq	%rdi, %r14
	je	.L1771
.L1769:
	movl	8(%rsi), %r10d
	movl	8(%rdi), %r11d
	cmpl	%r11d, %r10d
	setl	%r9b
	jne	.L1772
	movl	12(%rdi), %r8d
	cmpl	%r8d, 12(%rsi)
	setl	%r9b
.L1772:
	movq	48(%rbx), %r8
	movq	64(%rbx), %rcx
	subq	%r8, %rcx
	testb	%r9b, %r9b
	jne	.L1806
	vmovd	16(%rsi), %xmm4
	vmovd	%r10d, %xmm5
	movq	(%rsi), %rax
	vpinsrd	$1, 20(%rsi), %xmm4, %xmm1
	vpinsrd	$1, 12(%rsi), %xmm5, %xmm0
	vmovdqu	48(%rsi), %xmm3
	movzwl	28(%rsi), %r10d
	movq	%rax, (%rbx)
	vpunpcklqdq	%xmm1, %xmm0, %xmm2
	vmovdqu	%xmm2, 8(%rbx)
	movl	24(%rsi), %edx
	movw	%r10w, 28(%rbx)
	movl	%edx, 24(%rbx)
	movq	32(%rsi), %r11
	movq	%r11, 32(%rbx)
	movl	40(%rsi), %r9d
	vmovdqu	%xmm3, 48(%rbx)
	movq	64(%rsi), %rax
	movl	%r9d, 40(%rbx)
	movq	%rax, 64(%rbx)
	movq	$0, 64(%rsi)
	vmovdqu	%xmm6, 48(%rsi)
	testq	%r8, %r8
	je	.L1775
	movq	%rcx, %rdx
	movq	%r8, %rcx
	call	_ZdlPvy
.L1775:
	addq	$72, %rsi
	addq	$72, %rbx
	cmpq	%r15, %rsi
	jne	.L1953
.L1771:
	cmpq	%rsi, %r15
	je	.L1778
	movq	%r15, %r8
	subq	%rsi, %r8
	testb	$8, %r8b
	je	.L1947
	vmovdqu	8(%rsi), %xmm4
	movq	(%rsi), %rcx
	vmovdqu	48(%rsi), %xmm1
	movzwl	28(%rsi), %r11d
	vmovdqu	%xmm4, 8(%rbx)
	movl	24(%rsi), %r10d
	movq	64(%rbx), %rdx
	movq	%rcx, (%rbx)
	movq	48(%rbx), %rcx
	movl	%r10d, 24(%rbx)
	movq	32(%rsi), %r9
	movw	%r11w, 28(%rbx)
	movq	%r9, 32(%rbx)
	movl	40(%rsi), %eax
	vmovdqu	%xmm1, 48(%rbx)
	movq	64(%rsi), %r8
	movl	%eax, 40(%rbx)
	movq	%r8, 64(%rbx)
	movq	$0, 64(%rsi)
	vmovdqu	%xmm6, 48(%rsi)
	testq	%rcx, %rcx
	je	.L1861
	subq	%rcx, %rdx
	call	_ZdlPvy
.L1861:
	addq	$72, %rsi
	addq	$72, %rbx
	cmpq	%rsi, %r15
	je	.L1778
.L1947:
	movq	%rdi, 64(%rsp)
	movq	%rbp, 72(%rsp)
.L1777:
	vmovdqu	8(%rsi), %xmm5
	movq	(%rsi), %rbp
	vmovdqu	48(%rsi), %xmm0
	movzwl	28(%rsi), %edx
	vmovdqu	%xmm5, 8(%rbx)
	movl	24(%rsi), %edi
	movq	%rbp, (%rbx)
	movl	%edi, 24(%rbx)
	movq	32(%rsi), %rcx
	movw	%dx, 28(%rbx)
	movq	64(%rbx), %rdx
	movq	%rcx, 32(%rbx)
	movq	48(%rbx), %rcx
	movl	40(%rsi), %r10d
	vmovdqu	%xmm0, 48(%rbx)
	movq	64(%rsi), %r11
	movl	%r10d, 40(%rbx)
	movq	%r11, 64(%rbx)
	movq	$0, 64(%rsi)
	vmovdqu	%xmm6, 48(%rsi)
	testq	%rcx, %rcx
	je	.L1781
	subq	%rcx, %rdx
	call	_ZdlPvy
.L1781:
	leaq	72(%rsi), %rdi
	vmovdqu	8(%rdi), %xmm2
	movq	72(%rsi), %rsi
	leaq	72(%rbx), %rbp
	vmovdqu	48(%rdi), %xmm3
	movzwl	28(%rdi), %r9d
	movq	48(%rbp), %rcx
	movq	64(%rbp), %rdx
	movq	%rsi, 72(%rbx)
	vmovdqu	%xmm2, 8(%rbp)
	movl	24(%rdi), %ebx
	movw	%r9w, 28(%rbp)
	movl	%ebx, 24(%rbp)
	movq	32(%rdi), %rax
	movq	%rax, 32(%rbp)
	movl	40(%rdi), %r8d
	vmovdqu	%xmm3, 48(%rbp)
	movq	64(%rdi), %r10
	movl	%r8d, 40(%rbp)
	movq	%r10, 64(%rbp)
	movq	$0, 64(%rdi)
	vmovdqu	%xmm6, 48(%rdi)
	testq	%rcx, %rcx
	je	.L1864
	subq	%rcx, %rdx
	call	_ZdlPvy
.L1864:
	leaq	72(%rdi), %rsi
	leaq	72(%rbp), %rbx
	cmpq	%rsi, %r15
	jne	.L1777
	movq	64(%rsp), %rdi
	movq	72(%rsp), %rbp
.L1778:
	cmpq	%rdi, %r14
	je	.L1782
	movq	%r14, %rdx
	subq	%rdi, %rdx
	testb	$8, %dl
	je	.L1946
	vmovdqu	8(%rdi), %xmm4
	movq	(%rdi), %rcx
	vmovdqu	48(%rdi), %xmm1
	movzwl	28(%rdi), %r9d
	vmovdqu	%xmm4, 8(%rbx)
	movl	24(%rdi), %r11d
	movq	64(%rbx), %rdx
	movq	%rcx, (%rbx)
	movq	48(%rbx), %rcx
	movl	%r11d, 24(%rbx)
	movq	32(%rdi), %rax
	movw	%r9w, 28(%rbx)
	movq	%rax, 32(%rbx)
	movl	40(%rdi), %r8d
	vmovdqu	%xmm1, 48(%rbx)
	movq	64(%rdi), %r10
	movl	%r8d, 40(%rbx)
	movq	%r10, 64(%rbx)
	movq	$0, 64(%rdi)
	vmovdqu	%xmm6, 48(%rdi)
	testq	%rcx, %rcx
	je	.L1856
	subq	%rcx, %rdx
	call	_ZdlPvy
.L1856:
	addq	$72, %rdi
	addq	$72, %rbx
	cmpq	%rdi, %r14
	je	.L1782
.L1946:
	movq	%rbp, 64(%rsp)
.L1784:
	vmovdqu	8(%rdi), %xmm5
	movq	(%rdi), %rsi
	vmovdqu	48(%rdi), %xmm0
	movzwl	28(%rdi), %edx
	vmovdqu	%xmm5, 8(%rbx)
	movl	24(%rdi), %ebp
	movq	%rsi, (%rbx)
	movl	%ebp, 24(%rbx)
	movq	32(%rdi), %rcx
	movw	%dx, 28(%rbx)
	movq	64(%rbx), %rdx
	movq	%rcx, 32(%rbx)
	movq	48(%rbx), %rcx
	movl	40(%rdi), %r11d
	vmovdqu	%xmm0, 48(%rbx)
	movq	64(%rdi), %r9
	movl	%r11d, 40(%rbx)
	movq	%r9, 64(%rbx)
	movq	$0, 64(%rdi)
	vmovdqu	%xmm6, 48(%rdi)
	testq	%rcx, %rcx
	je	.L1783
	subq	%rcx, %rdx
	call	_ZdlPvy
.L1783:
	leaq	72(%rdi), %rsi
	movq	72(%rdi), %rdi
	leaq	72(%rbx), %rbp
	movzwl	28(%rsi), %eax
	vmovdqu	8(%rsi), %xmm2
	vmovdqu	48(%rsi), %xmm3
	movq	48(%rbp), %rcx
	movq	64(%rbp), %rdx
	movq	%rdi, 72(%rbx)
	vmovdqu	%xmm2, 8(%rbp)
	movl	24(%rsi), %ebx
	movw	%ax, 28(%rbp)
	movl	%ebx, 24(%rbp)
	movq	32(%rsi), %r8
	movq	%r8, 32(%rbp)
	movl	40(%rsi), %r10d
	vmovdqu	%xmm3, 48(%rbp)
	movq	64(%rsi), %r11
	movl	%r10d, 40(%rbp)
	movq	%r11, 64(%rbp)
	movq	$0, 64(%rsi)
	vmovdqu	%xmm6, 48(%rsi)
	testq	%rcx, %rcx
	je	.L1859
	subq	%rcx, %rdx
	call	_ZdlPvy
.L1859:
	leaq	72(%rsi), %rdi
	leaq	72(%rbp), %rbx
	cmpq	%rdi, %r14
	jne	.L1784
	movq	64(%rsp), %rbp
.L1782:
	movq	%r12, %rax
	addq	%rbp, %r15
	subq	%r14, %rax
	sarq	$3, %rax
	imulq	%r13, %rax
	cmpq	%rax, 56(%rsp)
	jle	.L1785
	movq	104(%rsp), %rdi
	movq	112(%rsp), %r10
	movq	%r14, %r15
	movq	120(%rsp), %rsi
.L1768:
	cmpq	%r10, %rax
	cmovg	%r10, %rax
	leaq	(%rax,%rax,8), %r14
	leaq	(%r15,%r14,8), %rbp
	movq	%rbp, %r14
	cmpq	%r15, %rbp
	je	.L1787
	movq	%r12, %rdx
	movq	%r10, 64(%rsp)
	movq	%rsi, %r12
	movq	%rdx, %rsi
	jmp	.L1786
	.p2align 4,,10
	.p2align 3
.L1795:
	jl	.L1954
.L1788:
	vmovd	16(%r15), %xmm4
	vmovd	%eax, %xmm5
	movq	(%r15), %rdx
	vpinsrd	$1, 20(%r15), %xmm4, %xmm1
	vpinsrd	$1, 12(%r15), %xmm5, %xmm0
	vmovdqu	48(%r15), %xmm3
	movzwl	28(%r15), %r9d
	movq	%rdx, (%rbx)
	vpunpcklqdq	%xmm1, %xmm0, %xmm2
	movq	64(%rbx), %rdx
	vmovdqu	%xmm2, 8(%rbx)
	movl	24(%r15), %ecx
	movw	%r9w, 28(%rbx)
	movl	%ecx, 24(%rbx)
	movq	32(%r15), %r10
	movq	48(%rbx), %rcx
	movq	%r10, 32(%rbx)
	movl	40(%r15), %eax
	vmovdqu	%xmm3, 48(%rbx)
	movq	64(%r15), %r8
	movl	%eax, 40(%rbx)
	movq	%r8, 64(%rbx)
	movq	$0, 64(%r15)
	vmovdqu	%xmm6, 48(%r15)
	testq	%rcx, %rcx
	je	.L1792
	subq	%rcx, %rdx
	call	_ZdlPvy
.L1792:
	addq	$72, %r15
	addq	$72, %rbx
	cmpq	%r15, %rbp
	je	.L1941
.L1786:
	cmpq	%r14, %rsi
	je	.L1955
	movl	8(%r15), %eax
	movl	8(%r14), %r8d
	cmpl	%r8d, %eax
	jne	.L1795
	movl	12(%r14), %r11d
	cmpl	%r11d, 12(%r15)
	jge	.L1788
.L1789:
	vmovd	16(%r14), %xmm4
	vmovd	%r8d, %xmm5
	movq	(%r14), %rdx
	vpinsrd	$1, 20(%r14), %xmm4, %xmm1
	vpinsrd	$1, %r11d, %xmm5, %xmm0
	movzwl	28(%r14), %ecx
	vmovdqu	48(%r14), %xmm3
	movq	%rdx, (%rbx)
	vpunpcklqdq	%xmm1, %xmm0, %xmm2
	movq	64(%rbx), %rdx
	vmovdqu	%xmm2, 8(%rbx)
	movl	24(%r14), %r11d
	movw	%cx, 28(%rbx)
	movq	48(%rbx), %rcx
	movl	%r11d, 24(%rbx)
	movq	32(%r14), %r9
	movq	%r9, 32(%rbx)
	movl	40(%r14), %r10d
	vmovdqu	%xmm3, 48(%rbx)
	movq	64(%r14), %rax
	movl	%r10d, 40(%rbx)
	movq	%rax, 64(%rbx)
	movq	$0, 64(%r14)
	vmovdqu	%xmm6, 48(%r14)
	testq	%rcx, %rcx
	je	.L1790
	subq	%rcx, %rdx
	call	_ZdlPvy
.L1790:
	addq	$72, %r14
	addq	$72, %rbx
	cmpq	%r15, %rbp
	jne	.L1786
.L1941:
	movq	%rsi, %rbp
	movq	64(%rsp), %r10
	movq	%r12, %rsi
	movq	%rbp, %r12
.L1787:
	cmpq	%r14, %r12
	je	.L1802
	movq	%r12, %r15
	subq	%r14, %r15
	testb	$8, %r15b
	je	.L1944
	vmovdqu	8(%r14), %xmm4
	movq	(%r14), %r8
	vmovdqu	48(%r14), %xmm1
	movzwl	28(%r14), %r11d
	vmovdqu	%xmm4, 8(%rbx)
	movl	24(%r14), %edx
	movq	%r8, (%rbx)
	movl	%edx, 24(%rbx)
	movq	32(%r14), %rcx
	movq	64(%rbx), %rdx
	movw	%r11w, 28(%rbx)
	movq	%rcx, 32(%rbx)
	movq	48(%rbx), %rcx
	movl	40(%r14), %r9d
	vmovdqu	%xmm1, 48(%rbx)
	movq	64(%r14), %rax
	movl	%r9d, 40(%rbx)
	movq	%rax, 64(%rbx)
	movq	$0, 64(%r14)
	vmovdqu	%xmm6, 48(%r14)
	testq	%rcx, %rcx
	je	.L1846
	subq	%rcx, %rdx
	movq	%r10, 64(%rsp)
	call	_ZdlPvy
	movq	64(%rsp), %r10
.L1846:
	addq	$72, %r14
	addq	$72, %rbx
	cmpq	%r14, %r12
	je	.L1802
.L1944:
	movq	%rsi, 64(%rsp)
	movq	%r10, %r15
.L1798:
	vmovdqu	8(%r14), %xmm5
	movq	(%r14), %rsi
	vmovdqu	48(%r14), %xmm0
	movzwl	28(%r14), %ebp
	vmovdqu	%xmm5, 8(%rbx)
	movl	24(%r14), %r10d
	movq	48(%rbx), %rcx
	movq	%rsi, (%rbx)
	movl	%r10d, 24(%rbx)
	movq	32(%r14), %r8
	movw	%bp, 28(%rbx)
	movq	%r8, 32(%rbx)
	movl	40(%r14), %edx
	vmovdqu	%xmm0, 48(%rbx)
	movq	64(%r14), %r11
	movl	%edx, 40(%rbx)
	movq	64(%rbx), %rdx
	movq	%r11, 64(%rbx)
	movq	$0, 64(%r14)
	vmovdqu	%xmm6, 48(%r14)
	testq	%rcx, %rcx
	je	.L1801
	subq	%rcx, %rdx
	call	_ZdlPvy
.L1801:
	leaq	72(%r14), %rbp
	vmovdqu	8(%rbp), %xmm2
	movq	72(%r14), %r14
	leaq	72(%rbx), %rsi
	movzwl	28(%rbp), %ecx
	vmovdqu	48(%rbp), %xmm3
	movq	%r14, 72(%rbx)
	movq	64(%rsi), %rdx
	vmovdqu	%xmm2, 8(%rsi)
	movl	24(%rbp), %ebx
	movw	%cx, 28(%rsi)
	movq	48(%rsi), %rcx
	movl	%ebx, 24(%rsi)
	movq	32(%rbp), %r9
	movq	%r9, 32(%rsi)
	movl	40(%rbp), %eax
	vmovdqu	%xmm3, 48(%rsi)
	movq	64(%rbp), %r10
	movl	%eax, 40(%rsi)
	movq	%r10, 64(%rsi)
	movq	$0, 64(%rbp)
	vmovdqu	%xmm6, 48(%rbp)
	testq	%rcx, %rcx
	je	.L1849
	subq	%rcx, %rdx
	call	_ZdlPvy
.L1849:
	leaq	72(%rbp), %r14
	leaq	72(%rsi), %rbx
	cmpq	%r14, %r12
	jne	.L1798
	movq	64(%rsp), %rsi
	movq	%r15, %r10
.L1802:
	salq	$2, %r10
	cmpq	%r10, %rsi
	jl	.L1956
	movq	56(%rsp), %rdx
	leaq	(%r10,%r10,8), %r8
	movq	96(%rsp), %r14
	movq	%r10, %r15
	leaq	0(,%r8,8), %rbp
	movq	88(%rsp), %rax
	leaq	(%rdx,%rdx,8), %rbx
	salq	$3, %rbx
	subq	%rbp, %rbx
	.p2align 4
	.p2align 3
.L1803:
	movq	%r14, %rcx
	movq	%rax, 32(%rsp)
	addq	%rbp, %r14
	leaq	(%r14,%rbx), %rdx
	movq	%r14, %r9
	movq	%rdx, %r8
	call	_ZSt12__move_mergeIPN9Stockfish6Search8RootMoveEN9__gnu_cxx17__normal_iteratorIS3_St6vectorIS2_SaIS2_EEEENS4_5__ops15_Iter_less_iterEET0_T_SD_SD_SD_SC_T1_.isra.0
	movq	%rdi, %r11
	subq	%r14, %r11
	sarq	$3, %r11
	imulq	%r13, %r11
	cmpq	%r11, %r15
	jle	.L1803
	movq	%rax, %rcx
	movq	56(%rsp), %rax
	movq	%r11, %r9
	movq	%r15, 64(%rsp)
	movq	%rcx, 32(%rsp)
	movq	%r14, %rcx
	cmpq	%rax, %r11
	cmovg	%rax, %r9
	leaq	(%r9,%r9,8), %r10
	movq	%rdi, %r9
	leaq	(%r14,%r10,8), %rdx
	movq	%rdx, %r8
	call	_ZSt12__move_mergeIPN9Stockfish6Search8RootMoveEN9__gnu_cxx17__normal_iteratorIS3_St6vectorIS2_SaIS2_EEEENS4_5__ops15_Iter_less_iterEET0_T_SD_SD_SD_SC_T1_.isra.0
	movq	64(%rsp), %r10
	cmpq	%r10, %rsi
	jle	.L1950
	leaq	(%r10,%r10), %r11
	movq	%r11, 56(%rsp)
	cmpq	%r11, %rsi
	jge	.L1957
.L1808:
	movq	96(%rsp), %rbx
	movq	88(%rsp), %r15
	movq	%rsi, %rax
	jmp	.L1768
	.p2align 4,,10
	.p2align 3
.L1954:
	movl	12(%r14), %r11d
	jmp	.L1789
.L1955:
	movq	%rsi, %rcx
	movq	64(%rsp), %r10
	movq	%r12, %rsi
	movq	%rcx, %r12
	cmpq	%rbp, %r15
	je	.L1787
	movq	%rbp, %r9
	subq	%r15, %r9
	andl	$8, %r9d
	je	.L1945
	vmovdqu	8(%r15), %xmm4
	movq	(%r15), %rax
	movzwl	28(%r15), %r11d
	vmovdqu	48(%r15), %xmm1
	vmovdqu	%xmm4, 8(%rbx)
	movl	24(%r15), %r8d
	movq	%rax, (%rbx)
	movl	%r8d, 24(%rbx)
	movq	32(%r15), %rdx
	movw	%r11w, 28(%rbx)
	movq	%rdx, 32(%rbx)
	movl	40(%r15), %ecx
	movq	64(%rbx), %rdx
	movl	%ecx, 40(%rbx)
	movq	48(%rbx), %rcx
	vmovdqu	%xmm1, 48(%rbx)
	movq	64(%r15), %r9
	movq	%r9, 64(%rbx)
	movq	$0, 64(%r15)
	vmovdqu	%xmm6, 48(%r15)
	testq	%rcx, %rcx
	je	.L1851
	subq	%rcx, %rdx
	movq	%r10, 64(%rsp)
	call	_ZdlPvy
	movq	64(%rsp), %r10
.L1851:
	addq	$72, %r15
	addq	$72, %rbx
	cmpq	%r15, %rbp
	je	.L1787
.L1945:
	movq	%rdi, 64(%rsp)
	movq	%r10, 72(%rsp)
	movq	%rsi, 80(%rsp)
.L1794:
	vmovdqu	8(%r15), %xmm5
	movq	(%r15), %rdi
	vmovdqu	48(%r15), %xmm0
	movzwl	28(%r15), %esi
	vmovdqu	%xmm5, 8(%rbx)
	movl	24(%r15), %r10d
	movq	48(%rbx), %rcx
	movq	64(%rbx), %rdx
	movq	%rdi, (%rbx)
	movl	%r10d, 24(%rbx)
	movq	32(%r15), %rax
	movw	%si, 28(%rbx)
	movq	%rax, 32(%rbx)
	movl	40(%r15), %r8d
	vmovdqu	%xmm0, 48(%rbx)
	movq	64(%r15), %r11
	movl	%r8d, 40(%rbx)
	movq	%r11, 64(%rbx)
	movq	$0, 64(%r15)
	vmovdqu	%xmm6, 48(%r15)
	testq	%rcx, %rcx
	je	.L1797
	subq	%rcx, %rdx
	call	_ZdlPvy
.L1797:
	leaq	72(%r15), %rsi
	vmovdqu	8(%rsi), %xmm2
	movq	72(%r15), %r15
	leaq	72(%rbx), %rdi
	vmovdqu	48(%rsi), %xmm3
	movzwl	28(%rsi), %edx
	movq	%r15, 72(%rbx)
	vmovdqu	%xmm2, 8(%rdi)
	movl	24(%rsi), %ebx
	movw	%dx, 28(%rdi)
	movq	64(%rdi), %rdx
	movl	%ebx, 24(%rdi)
	movq	32(%rsi), %rcx
	movq	%rcx, 32(%rdi)
	movq	48(%rdi), %rcx
	movl	40(%rsi), %r9d
	vmovdqu	%xmm3, 48(%rdi)
	movq	64(%rsi), %r10
	movl	%r9d, 40(%rdi)
	movq	%r10, 64(%rdi)
	movq	$0, 64(%rsi)
	vmovdqu	%xmm6, 48(%rsi)
	testq	%rcx, %rcx
	je	.L1854
	subq	%rcx, %rdx
	call	_ZdlPvy
.L1854:
	leaq	72(%rsi), %r15
	leaq	72(%rdi), %rbx
	cmpq	%r15, %rbp
	jne	.L1794
	movq	64(%rsp), %rdi
	movq	72(%rsp), %r10
	movq	80(%rsp), %rsi
	jmp	.L1787
	.p2align 4,,10
	.p2align 3
.L1811:
	movq	%r15, %rdi
	jmp	.L1771
.L1956:
	movq	56(%rsp), %r13
	movq	88(%rsp), %r15
	movq	%rdi, %r9
	movq	96(%rsp), %rcx
	cmpq	%r13, %rsi
	movq	%r15, 32(%rsp)
	cmovle	%rsi, %r13
	leaq	0(%r13,%r13,8), %r12
	leaq	(%rcx,%r12,8), %rdx
	movq	%rdx, %r8
	call	_ZSt12__move_mergeIPN9Stockfish6Search8RootMoveEN9__gnu_cxx17__normal_iteratorIS3_St6vectorIS2_SaIS2_EEEENS4_5__ops15_Iter_less_iterEET0_T_SD_SD_SD_SC_T1_.isra.0
	nop
.L1950:
	vmovups	128(%rsp), %xmm6
	addq	$152, %rsp
	popq	%rbx
	popq	%rsi
	popq	%rdi
	popq	%rbp
	popq	%r12
	popq	%r13
	popq	%r14
	popq	%r15
	ret
.L1763:
	vmovups	128(%rsp), %xmm6
	addq	$152, %rsp
	popq	%rbx
	popq	%rsi
	popq	%rdi
	popq	%rbp
	popq	%r12
	popq	%r13
	popq	%r14
	popq	%r15
	jmp	_ZSt16__insertion_sortIN9__gnu_cxx17__normal_iteratorIPN9Stockfish6Search8RootMoveESt6vectorIS4_SaIS4_EEEENS0_5__ops15_Iter_less_iterEEvT_SC_T0_.isra.0
	.seh_endproc
	.align 2
	.p2align 4
	.def	_ZN9Stockfish6Search13SearchManagerD0Ev;	.scl	3;	.type	32;	.endef
	.seh_proc	_ZN9Stockfish6Search13SearchManagerD0Ev
_ZN9Stockfish6Search13SearchManagerD0Ev:
	.seh_endprologue
	movl	$128, %edx
	jmp	_ZdlPvy
	.seh_endproc
	.p2align 4
	.def	__tcf_ZN9StockfishL26STARTUP_PROCESSOR_AFFINITYE.lto_priv.4;	.scl	3;	.type	32;	.endef
	.seh_proc	__tcf_ZN9StockfishL26STARTUP_PROCESSOR_AFFINITYE.lto_priv.4
__tcf_ZN9StockfishL26STARTUP_PROCESSOR_AFFINITYE.lto_priv.4:
	pushq	%rbx
	.seh_pushreg	%rbx
	subq	$32, %rsp
	.seh_stackalloc	32
	.seh_endprologue
	cmpb	$0, 104+_ZN9StockfishL26STARTUP_PROCESSOR_AFFINITYE.lto_priv.4(%rip)
	jne	.L1973
.L1960:
	cmpb	$0, 48+_ZN9StockfishL26STARTUP_PROCESSOR_AFFINITYE.lto_priv.4(%rip)
	jne	.L1974
.L1972:
	addq	$32, %rsp
	popq	%rbx
	ret
	.p2align 4,,10
	.p2align 3
.L1973:
	movq	72+_ZN9StockfishL26STARTUP_PROCESSOR_AFFINITYE.lto_priv.4(%rip), %rbx
	testq	%rbx, %rbx
	je	.L1960
.L1961:
	movq	24(%rbx), %rcx
	call	_ZNSt8_Rb_treeIyySt9_IdentityIyESt4lessIyESaIyEE8_M_eraseEPSt13_Rb_tree_nodeIyE.isra.0
	movq	%rbx, %rcx
	movq	16(%rbx), %rbx
	movl	$40, %edx
	call	_ZdlPvy
	testq	%rbx, %rbx
	jne	.L1961
	cmpb	$0, 48+_ZN9StockfishL26STARTUP_PROCESSOR_AFFINITYE.lto_priv.4(%rip)
	je	.L1972
.L1974:
	movq	16+_ZN9StockfishL26STARTUP_PROCESSOR_AFFINITYE.lto_priv.4(%rip), %rbx
	testq	%rbx, %rbx
	je	.L1972
.L1963:
	movq	24(%rbx), %rcx
	call	_ZNSt8_Rb_treeIyySt9_IdentityIyESt4lessIyESaIyEE8_M_eraseEPSt13_Rb_tree_nodeIyE.isra.0
	movq	%rbx, %rcx
	movq	16(%rbx), %rbx
	movl	$40, %edx
	call	_ZdlPvy
	testq	%rbx, %rbx
	jne	.L1963
	addq	$32, %rsp
	popq	%rbx
	ret
	.seh_endproc
	.align 2
	.p2align 4
	.def	_ZN9Stockfish6Search17NullSearchManagerD0Ev;	.scl	3;	.type	32;	.endef
	.seh_proc	_ZN9Stockfish6Search17NullSearchManagerD0Ev
_ZN9Stockfish6Search17NullSearchManagerD0Ev:
	.seh_endprologue
	movl	$8, %edx
	jmp	_ZdlPvy
	.seh_endproc
	.p2align 4
	.def	__tcf_ZN9StockfishL26STARTUP_PROCESSOR_AFFINITYE.lto_priv.5;	.scl	3;	.type	32;	.endef
	.seh_proc	__tcf_ZN9StockfishL26STARTUP_PROCESSOR_AFFINITYE.lto_priv.5
__tcf_ZN9StockfishL26STARTUP_PROCESSOR_AFFINITYE.lto_priv.5:
	pushq	%rbx
	.seh_pushreg	%rbx
	subq	$32, %rsp
	.seh_stackalloc	32
	.seh_endprologue
	cmpb	$0, 104+_ZN9StockfishL26STARTUP_PROCESSOR_AFFINITYE.lto_priv.5(%rip)
	jne	.L1990
.L1977:
	cmpb	$0, 48+_ZN9StockfishL26STARTUP_PROCESSOR_AFFINITYE.lto_priv.5(%rip)
	jne	.L1991
.L1989:
	addq	$32, %rsp
	popq	%rbx
	ret
	.p2align 4,,10
	.p2align 3
.L1990:
	movq	72+_ZN9StockfishL26STARTUP_PROCESSOR_AFFINITYE.lto_priv.5(%rip), %rbx
	testq	%rbx, %rbx
	je	.L1977
.L1978:
	movq	24(%rbx), %rcx
	call	_ZNSt8_Rb_treeIyySt9_IdentityIyESt4lessIyESaIyEE8_M_eraseEPSt13_Rb_tree_nodeIyE.isra.0
	movq	%rbx, %rcx
	movq	16(%rbx), %rbx
	movl	$40, %edx
	call	_ZdlPvy
	testq	%rbx, %rbx
	jne	.L1978
	cmpb	$0, 48+_ZN9StockfishL26STARTUP_PROCESSOR_AFFINITYE.lto_priv.5(%rip)
	je	.L1989
.L1991:
	movq	16+_ZN9StockfishL26STARTUP_PROCESSOR_AFFINITYE.lto_priv.5(%rip), %rbx
	testq	%rbx, %rbx
	je	.L1989
.L1980:
	movq	24(%rbx), %rcx
	call	_ZNSt8_Rb_treeIyySt9_IdentityIyESt4lessIyESaIyEE8_M_eraseEPSt13_Rb_tree_nodeIyE.isra.0
	movq	%rbx, %rcx
	movq	16(%rbx), %rbx
	movl	$40, %edx
	call	_ZdlPvy
	testq	%rbx, %rbx
	jne	.L1980
	addq	$32, %rsp
	popq	%rbx
	ret
	.seh_endproc
	.p2align 4
	.def	__tcf_ZN9StockfishL26STARTUP_PROCESSOR_AFFINITYE.lto_priv.6;	.scl	3;	.type	32;	.endef
	.seh_proc	__tcf_ZN9StockfishL26STARTUP_PROCESSOR_AFFINITYE.lto_priv.6
__tcf_ZN9StockfishL26STARTUP_PROCESSOR_AFFINITYE.lto_priv.6:
	pushq	%rbx
	.seh_pushreg	%rbx
	subq	$32, %rsp
	.seh_stackalloc	32
	.seh_endprologue
	cmpb	$0, 104+_ZN9StockfishL26STARTUP_PROCESSOR_AFFINITYE.lto_priv.6(%rip)
	jne	.L2006
.L1993:
	cmpb	$0, 48+_ZN9StockfishL26STARTUP_PROCESSOR_AFFINITYE.lto_priv.6(%rip)
	jne	.L2007
.L2005:
	addq	$32, %rsp
	popq	%rbx
	ret
	.p2align 4,,10
	.p2align 3
.L2006:
	movq	72+_ZN9StockfishL26STARTUP_PROCESSOR_AFFINITYE.lto_priv.6(%rip), %rbx
	testq	%rbx, %rbx
	je	.L1993
.L1994:
	movq	24(%rbx), %rcx
	call	_ZNSt8_Rb_treeIyySt9_IdentityIyESt4lessIyESaIyEE8_M_eraseEPSt13_Rb_tree_nodeIyE.isra.0
	movq	%rbx, %rcx
	movq	16(%rbx), %rbx
	movl	$40, %edx
	call	_ZdlPvy
	testq	%rbx, %rbx
	jne	.L1994
	cmpb	$0, 48+_ZN9StockfishL26STARTUP_PROCESSOR_AFFINITYE.lto_priv.6(%rip)
	je	.L2005
.L2007:
	movq	16+_ZN9StockfishL26STARTUP_PROCESSOR_AFFINITYE.lto_priv.6(%rip), %rbx
	testq	%rbx, %rbx
	je	.L2005
.L1996:
	movq	24(%rbx), %rcx
	call	_ZNSt8_Rb_treeIyySt9_IdentityIyESt4lessIyESaIyEE8_M_eraseEPSt13_Rb_tree_nodeIyE.isra.0
	movq	%rbx, %rcx
	movq	16(%rbx), %rbx
	movl	$40, %edx
	call	_ZdlPvy
	testq	%rbx, %rbx
	jne	.L1996
	addq	$32, %rsp
	popq	%rbx
	ret
	.seh_endproc
	.p2align 4
	.def	__tcf_ZN9StockfishL26STARTUP_PROCESSOR_AFFINITYE.lto_priv.7;	.scl	3;	.type	32;	.endef
	.seh_proc	__tcf_ZN9StockfishL26STARTUP_PROCESSOR_AFFINITYE.lto_priv.7
__tcf_ZN9StockfishL26STARTUP_PROCESSOR_AFFINITYE.lto_priv.7:
	pushq	%rbx
	.seh_pushreg	%rbx
	subq	$32, %rsp
	.seh_stackalloc	32
	.seh_endprologue
	cmpb	$0, 104+_ZN9StockfishL26STARTUP_PROCESSOR_AFFINITYE.lto_priv.7(%rip)
	jne	.L2022
.L2009:
	cmpb	$0, 48+_ZN9StockfishL26STARTUP_PROCESSOR_AFFINITYE.lto_priv.7(%rip)
	jne	.L2023
.L2021:
	addq	$32, %rsp
	popq	%rbx
	ret
	.p2align 4,,10
	.p2align 3
.L2022:
	movq	72+_ZN9StockfishL26STARTUP_PROCESSOR_AFFINITYE.lto_priv.7(%rip), %rbx
	testq	%rbx, %rbx
	je	.L2009
.L2010:
	movq	24(%rbx), %rcx
	call	_ZNSt8_Rb_treeIyySt9_IdentityIyESt4lessIyESaIyEE8_M_eraseEPSt13_Rb_tree_nodeIyE.isra.0
	movq	%rbx, %rcx
	movq	16(%rbx), %rbx
	movl	$40, %edx
	call	_ZdlPvy
	testq	%rbx, %rbx
	jne	.L2010
	cmpb	$0, 48+_ZN9StockfishL26STARTUP_PROCESSOR_AFFINITYE.lto_priv.7(%rip)
	je	.L2021
.L2023:
	movq	16+_ZN9StockfishL26STARTUP_PROCESSOR_AFFINITYE.lto_priv.7(%rip), %rbx
	testq	%rbx, %rbx
	je	.L2021
.L2012:
	movq	24(%rbx), %rcx
	call	_ZNSt8_Rb_treeIyySt9_IdentityIyESt4lessIyESaIyEE8_M_eraseEPSt13_Rb_tree_nodeIyE.isra.0
	movq	%rbx, %rcx
	movq	16(%rbx), %rbx
	movl	$40, %edx
	call	_ZdlPvy
	testq	%rbx, %rbx
	jne	.L2012
	addq	$32, %rsp
	popq	%rbx
	ret
	.seh_endproc
	.p2align 4
	.def	__tcf_ZN9StockfishL26STARTUP_PROCESSOR_AFFINITYE.lto_priv.8;	.scl	3;	.type	32;	.endef
	.seh_proc	__tcf_ZN9StockfishL26STARTUP_PROCESSOR_AFFINITYE.lto_priv.8
__tcf_ZN9StockfishL26STARTUP_PROCESSOR_AFFINITYE.lto_priv.8:
	pushq	%rbx
	.seh_pushreg	%rbx
	subq	$32, %rsp
	.seh_stackalloc	32
